
3.2.3.main:     file format elf64-x86-64


Disassembly of section .text:

0000000000400c00 <main.main>:
  400c00:	48 83 ec 08          	sub    $0x8,%rsp
  400c04:	48 c7 04 24 01 00 00 	movq   $0x1,(%rsp)
  400c0b:	00 
  400c0c:	48 8d 1c 24          	lea    (%rsp),%rbx
  400c10:	48 89 d9             	mov    %rbx,%rcx
  400c13:	48 c7 c0 02 00 00 00 	mov    $0x2,%rax
  400c1a:	48 8b 1b             	mov    (%rbx),%rbx
  400c1d:	48 01 c3             	add    %rax,%rbx
  400c20:	48 89 19             	mov    %rbx,(%rcx)
  400c23:	48 83 c4 08          	add    $0x8,%rsp
  400c27:	c3                   	retq   
	...

0000000000400c30 <main.init>:
  400c30:	64 48 8b 0c 25 f0 ff 	mov    %fs:0xfffffffffffffff0,%rcx
  400c37:	ff ff 
  400c39:	48 3b 61 10          	cmp    0x10(%rcx),%rsp
  400c3d:	77 07                	ja     400c46 <main.init+0x16>
  400c3f:	e8 0c bf 02 00       	callq  42cb50 <runtime.morestack_noctxt>
  400c44:	eb ea                	jmp    400c30 <main.init>
  400c46:	0f b6 1d 14 d8 06 00 	movzbl 0x6d814(%rip),%ebx        # 46e461 <main.initdone.>
  400c4d:	80 fb 00             	cmp    $0x0,%bl
  400c50:	74 14                	je     400c66 <main.init+0x36>
  400c52:	0f b6 1d 08 d8 06 00 	movzbl 0x6d808(%rip),%ebx        # 46e461 <main.initdone.>
  400c59:	80 fb 02             	cmp    $0x2,%bl
  400c5c:	75 01                	jne    400c5f <main.init+0x2f>
  400c5e:	c3                   	retq   
  400c5f:	e8 2c 89 00 00       	callq  409590 <runtime.throwinit>
  400c64:	0f 0b                	ud2    
  400c66:	c6 05 f4 d7 06 00 01 	movb   $0x1,0x6d7f4(%rip)        # 46e461 <main.initdone.>
  400c6d:	c6 05 ed d7 06 00 02 	movb   $0x2,0x6d7ed(%rip)        # 46e461 <main.initdone.>
  400c74:	c3                   	retq   
	...

0000000000400c80 <runtime.memhash>:
  400c80:	64 48 8b 0c 25 f0 ff 	mov    %fs:0xfffffffffffffff0,%rcx
  400c87:	ff ff 
  400c89:	48 3b 61 10          	cmp    0x10(%rcx),%rsp
  400c8d:	77 07                	ja     400c96 <runtime.memhash+0x16>
  400c8f:	e8 bc be 02 00       	callq  42cb50 <runtime.morestack_noctxt>
  400c94:	eb ea                	jmp    400c80 <runtime.memhash>
  400c96:	48 83 ec 20          	sub    $0x20,%rsp
  400c9a:	48 8b 54 24 38       	mov    0x38(%rsp),%rdx
  400c9f:	48 8b 4c 24 28       	mov    0x28(%rsp),%rcx
  400ca4:	48 8b 44 24 30       	mov    0x30(%rsp),%rax
  400ca9:	80 3d b6 d7 06 00 00 	cmpb   $0x0,0x6d7b6(%rip)        # 46e466 <runtime.useAeshash>
  400cb0:	74 22                	je     400cd4 <runtime.memhash+0x54>
  400cb2:	48 89 0c 24          	mov    %rcx,(%rsp)
  400cb6:	48 89 44 24 08       	mov    %rax,0x8(%rsp)
  400cbb:	48 89 54 24 10       	mov    %rdx,0x10(%rsp)
  400cc0:	e8 4b d4 02 00       	callq  42e110 <runtime.aeshash>
  400cc5:	48 8b 5c 24 18       	mov    0x18(%rsp),%rbx
  400cca:	48 89 5c 24 40       	mov    %rbx,0x40(%rsp)
  400ccf:	48 83 c4 20          	add    $0x20,%rsp
  400cd3:	c3                   	retq   
  400cd4:	48 bb 21 a6 56 6a a1 	movabs $0x756ea16a56a621,%rbx
  400cdb:	6e 75 00 
  400cde:	48 31 d3             	xor    %rdx,%rbx
  400ce1:	48 89 da             	mov    %rbx,%rdx
  400ce4:	48 83 f8 00          	cmp    $0x0,%rax
  400ce8:	76 30                	jbe    400d1a <runtime.memhash+0x9a>
  400cea:	0f b6 19             	movzbl (%rcx),%ebx
  400ced:	48 31 d3             	xor    %rdx,%rbx
  400cf0:	48 bd bf 63 8f bb 6b 	movabs $0x52ef6bbb8f63bf,%rbp
  400cf7:	ef 52 00 
  400cfa:	48 0f af dd          	imul   %rbp,%rbx
  400cfe:	48 89 da             	mov    %rbx,%rdx
  400d01:	48 89 cb             	mov    %rcx,%rbx
  400d04:	48 c7 c1 01 00 00 00 	mov    $0x1,%rcx
  400d0b:	48 01 cb             	add    %rcx,%rbx
  400d0e:	48 89 d9             	mov    %rbx,%rcx
  400d11:	48 ff c8             	dec    %rax
  400d14:	48 83 f8 00          	cmp    $0x0,%rax
  400d18:	77 d0                	ja     400cea <runtime.memhash+0x6a>
  400d1a:	48 89 54 24 40       	mov    %rdx,0x40(%rsp)
  400d1f:	48 83 c4 20          	add    $0x20,%rsp
  400d23:	c3                   	retq   
	...

0000000000400d30 <runtime.strhash>:
  400d30:	64 48 8b 0c 25 f0 ff 	mov    %fs:0xfffffffffffffff0,%rcx
  400d37:	ff ff 
  400d39:	48 3b 61 10          	cmp    0x10(%rcx),%rsp
  400d3d:	77 07                	ja     400d46 <runtime.strhash+0x16>
  400d3f:	e8 0c be 02 00       	callq  42cb50 <runtime.morestack_noctxt>
  400d44:	eb ea                	jmp    400d30 <runtime.strhash>
  400d46:	48 83 ec 20          	sub    $0x20,%rsp
  400d4a:	48 8b 4c 24 28       	mov    0x28(%rsp),%rcx
  400d4f:	48 8b 41 08          	mov    0x8(%rcx),%rax
  400d53:	48 8b 29             	mov    (%rcx),%rbp
  400d56:	48 89 2c 24          	mov    %rbp,(%rsp)
  400d5a:	48 89 44 24 08       	mov    %rax,0x8(%rsp)
  400d5f:	48 8b 5c 24 38       	mov    0x38(%rsp),%rbx
  400d64:	48 89 5c 24 10       	mov    %rbx,0x10(%rsp)
  400d69:	e8 12 ff ff ff       	callq  400c80 <runtime.memhash>
  400d6e:	48 8b 5c 24 18       	mov    0x18(%rsp),%rbx
  400d73:	48 89 5c 24 40       	mov    %rbx,0x40(%rsp)
  400d78:	48 83 c4 20          	add    $0x20,%rsp
  400d7c:	c3                   	retq   
  400d7d:	00 00                	add    %al,(%rax)
	...

0000000000400d80 <runtime.f32hash>:
  400d80:	64 48 8b 0c 25 f0 ff 	mov    %fs:0xfffffffffffffff0,%rcx
  400d87:	ff ff 
  400d89:	48 3b 61 10          	cmp    0x10(%rcx),%rsp
  400d8d:	77 07                	ja     400d96 <runtime.f32hash+0x16>
  400d8f:	e8 bc bd 02 00       	callq  42cb50 <runtime.morestack_noctxt>
  400d94:	eb ea                	jmp    400d80 <runtime.f32hash>
  400d96:	48 83 ec 20          	sub    $0x20,%rsp
  400d9a:	48 8b 4c 24 28       	mov    0x28(%rsp),%rcx
  400d9f:	48 8b 44 24 38       	mov    0x38(%rsp),%rax
  400da4:	f3 0f 10 11          	movss  (%rcx),%xmm2
  400da8:	f3 0f 10 0d ac a8 04 	movss  0x4a8ac(%rip),%xmm1        # 44b65c <$f32.00000000>
  400daf:	00 
  400db0:	0f 2e ca             	ucomiss %xmm2,%xmm1
  400db3:	75 27                	jne    400ddc <runtime.f32hash+0x5c>
  400db5:	7a 25                	jp     400ddc <runtime.f32hash+0x5c>
  400db7:	48 bb 21 a6 56 6a a1 	movabs $0x756ea16a56a621,%rbx
  400dbe:	6e 75 00 
  400dc1:	48 31 c3             	xor    %rax,%rbx
  400dc4:	48 bd bf 63 8f bb 6b 	movabs $0x52ef6bbb8f63bf,%rbp
  400dcb:	ef 52 00 
  400dce:	48 0f af dd          	imul   %rbp,%rbx
  400dd2:	48 89 5c 24 40       	mov    %rbx,0x40(%rsp)
  400dd7:	48 83 c4 20          	add    $0x20,%rsp
  400ddb:	c3                   	retq   
  400ddc:	0f 2e d2             	ucomiss %xmm2,%xmm2
  400ddf:	75 28                	jne    400e09 <runtime.f32hash+0x89>
  400de1:	7a 26                	jp     400e09 <runtime.f32hash+0x89>
  400de3:	48 89 0c 24          	mov    %rcx,(%rsp)
  400de7:	48 c7 44 24 08 04 00 	movq   $0x4,0x8(%rsp)
  400dee:	00 00 
  400df0:	48 89 44 24 10       	mov    %rax,0x10(%rsp)
  400df5:	e8 86 fe ff ff       	callq  400c80 <runtime.memhash>
  400dfa:	48 8b 5c 24 18       	mov    0x18(%rsp),%rbx
  400dff:	48 89 5c 24 40       	mov    %rbx,0x40(%rsp)
  400e04:	48 83 c4 20          	add    $0x20,%rsp
  400e08:	c3                   	retq   
  400e09:	e8 c2 dd 02 00       	callq  42ebd0 <runtime.fastrand1>
  400e0e:	8b 04 24             	mov    (%rsp),%eax
  400e11:	48 8b 6c 24 38       	mov    0x38(%rsp),%rbp
  400e16:	48 bb 21 a6 56 6a a1 	movabs $0x756ea16a56a621,%rbx
  400e1d:	6e 75 00 
  400e20:	48 31 eb             	xor    %rbp,%rbx
  400e23:	8b e8                	mov    %eax,%ebp
  400e25:	48 31 eb             	xor    %rbp,%rbx
  400e28:	48 bd bf 63 8f bb 6b 	movabs $0x52ef6bbb8f63bf,%rbp
  400e2f:	ef 52 00 
  400e32:	48 0f af dd          	imul   %rbp,%rbx
  400e36:	48 89 5c 24 40       	mov    %rbx,0x40(%rsp)
  400e3b:	48 83 c4 20          	add    $0x20,%rsp
  400e3f:	c3                   	retq   

0000000000400e40 <runtime.f64hash>:
  400e40:	64 48 8b 0c 25 f0 ff 	mov    %fs:0xfffffffffffffff0,%rcx
  400e47:	ff ff 
  400e49:	48 3b 61 10          	cmp    0x10(%rcx),%rsp
  400e4d:	77 07                	ja     400e56 <runtime.f64hash+0x16>
  400e4f:	e8 fc bc 02 00       	callq  42cb50 <runtime.morestack_noctxt>
  400e54:	eb ea                	jmp    400e40 <runtime.f64hash>
  400e56:	48 83 ec 20          	sub    $0x20,%rsp
  400e5a:	48 8b 4c 24 28       	mov    0x28(%rsp),%rcx
  400e5f:	48 8b 44 24 38       	mov    0x38(%rsp),%rax
  400e64:	f2 0f 10 11          	movsd  (%rcx),%xmm2
  400e68:	f2 0f 10 0d f0 a7 04 	movsd  0x4a7f0(%rip),%xmm1        # 44b660 <$f64.0000000000000000>
  400e6f:	00 
  400e70:	66 0f 2e ca          	ucomisd %xmm2,%xmm1
  400e74:	75 27                	jne    400e9d <runtime.f64hash+0x5d>
  400e76:	7a 25                	jp     400e9d <runtime.f64hash+0x5d>
  400e78:	48 bb 21 a6 56 6a a1 	movabs $0x756ea16a56a621,%rbx
  400e7f:	6e 75 00 
  400e82:	48 31 c3             	xor    %rax,%rbx
  400e85:	48 bd bf 63 8f bb 6b 	movabs $0x52ef6bbb8f63bf,%rbp
  400e8c:	ef 52 00 
  400e8f:	48 0f af dd          	imul   %rbp,%rbx
  400e93:	48 89 5c 24 40       	mov    %rbx,0x40(%rsp)
  400e98:	48 83 c4 20          	add    $0x20,%rsp
  400e9c:	c3                   	retq   
  400e9d:	66 0f 2e d2          	ucomisd %xmm2,%xmm2
  400ea1:	75 28                	jne    400ecb <runtime.f64hash+0x8b>
  400ea3:	7a 26                	jp     400ecb <runtime.f64hash+0x8b>
  400ea5:	48 89 0c 24          	mov    %rcx,(%rsp)
  400ea9:	48 c7 44 24 08 08 00 	movq   $0x8,0x8(%rsp)
  400eb0:	00 00 
  400eb2:	48 89 44 24 10       	mov    %rax,0x10(%rsp)
  400eb7:	e8 c4 fd ff ff       	callq  400c80 <runtime.memhash>
  400ebc:	48 8b 5c 24 18       	mov    0x18(%rsp),%rbx
  400ec1:	48 89 5c 24 40       	mov    %rbx,0x40(%rsp)
  400ec6:	48 83 c4 20          	add    $0x20,%rsp
  400eca:	c3                   	retq   
  400ecb:	e8 00 dd 02 00       	callq  42ebd0 <runtime.fastrand1>
  400ed0:	8b 04 24             	mov    (%rsp),%eax
  400ed3:	48 8b 6c 24 38       	mov    0x38(%rsp),%rbp
  400ed8:	48 bb 21 a6 56 6a a1 	movabs $0x756ea16a56a621,%rbx
  400edf:	6e 75 00 
  400ee2:	48 31 eb             	xor    %rbp,%rbx
  400ee5:	8b e8                	mov    %eax,%ebp
  400ee7:	48 31 eb             	xor    %rbp,%rbx
  400eea:	48 bd bf 63 8f bb 6b 	movabs $0x52ef6bbb8f63bf,%rbp
  400ef1:	ef 52 00 
  400ef4:	48 0f af dd          	imul   %rbp,%rbx
  400ef8:	48 89 5c 24 40       	mov    %rbx,0x40(%rsp)
  400efd:	48 83 c4 20          	add    $0x20,%rsp
  400f01:	c3                   	retq   
	...

0000000000400f10 <runtime.c64hash>:
  400f10:	64 48 8b 0c 25 f0 ff 	mov    %fs:0xfffffffffffffff0,%rcx
  400f17:	ff ff 
  400f19:	48 3b 61 10          	cmp    0x10(%rcx),%rsp
  400f1d:	77 07                	ja     400f26 <runtime.c64hash+0x16>
  400f1f:	e8 2c bc 02 00       	callq  42cb50 <runtime.morestack_noctxt>
  400f24:	eb ea                	jmp    400f10 <runtime.c64hash>
  400f26:	48 83 ec 28          	sub    $0x28,%rsp
  400f2a:	48 8b 44 24 30       	mov    0x30(%rsp),%rax
  400f2f:	48 89 44 24 20       	mov    %rax,0x20(%rsp)
  400f34:	48 83 f8 00          	cmp    $0x0,%rax
  400f38:	74 5a                	je     400f94 <runtime.c64hash+0x84>
  400f3a:	48 89 04 24          	mov    %rax,(%rsp)
  400f3e:	48 c7 44 24 08 04 00 	movq   $0x4,0x8(%rsp)
  400f45:	00 00 
  400f47:	48 8b 5c 24 40       	mov    0x40(%rsp),%rbx
  400f4c:	48 89 5c 24 10       	mov    %rbx,0x10(%rsp)
  400f51:	e8 2a fe ff ff       	callq  400d80 <runtime.f32hash>
  400f56:	48 8b 44 24 18       	mov    0x18(%rsp),%rax
  400f5b:	48 8b 5c 24 20       	mov    0x20(%rsp),%rbx
  400f60:	48 83 fb 00          	cmp    $0x0,%rbx
  400f64:	74 2a                	je     400f90 <runtime.c64hash+0x80>
  400f66:	48 83 c3 04          	add    $0x4,%rbx
  400f6a:	48 89 1c 24          	mov    %rbx,(%rsp)
  400f6e:	48 c7 44 24 08 04 00 	movq   $0x4,0x8(%rsp)
  400f75:	00 00 
  400f77:	48 89 44 24 10       	mov    %rax,0x10(%rsp)
  400f7c:	e8 ff fd ff ff       	callq  400d80 <runtime.f32hash>
  400f81:	48 8b 5c 24 18       	mov    0x18(%rsp),%rbx
  400f86:	48 89 5c 24 48       	mov    %rbx,0x48(%rsp)
  400f8b:	48 83 c4 28          	add    $0x28,%rsp
  400f8f:	c3                   	retq   
  400f90:	89 03                	mov    %eax,(%rbx)
  400f92:	eb d2                	jmp    400f66 <runtime.c64hash+0x56>
  400f94:	89 00                	mov    %eax,(%rax)
  400f96:	eb a2                	jmp    400f3a <runtime.c64hash+0x2a>
	...

0000000000400fa0 <runtime.c128hash>:
  400fa0:	64 48 8b 0c 25 f0 ff 	mov    %fs:0xfffffffffffffff0,%rcx
  400fa7:	ff ff 
  400fa9:	48 3b 61 10          	cmp    0x10(%rcx),%rsp
  400fad:	77 07                	ja     400fb6 <runtime.c128hash+0x16>
  400faf:	e8 9c bb 02 00       	callq  42cb50 <runtime.morestack_noctxt>
  400fb4:	eb ea                	jmp    400fa0 <runtime.c128hash>
  400fb6:	48 83 ec 28          	sub    $0x28,%rsp
  400fba:	48 8b 44 24 30       	mov    0x30(%rsp),%rax
  400fbf:	48 89 44 24 20       	mov    %rax,0x20(%rsp)
  400fc4:	48 83 f8 00          	cmp    $0x0,%rax
  400fc8:	74 5a                	je     401024 <runtime.c128hash+0x84>
  400fca:	48 89 04 24          	mov    %rax,(%rsp)
  400fce:	48 c7 44 24 08 08 00 	movq   $0x8,0x8(%rsp)
  400fd5:	00 00 
  400fd7:	48 8b 5c 24 40       	mov    0x40(%rsp),%rbx
  400fdc:	48 89 5c 24 10       	mov    %rbx,0x10(%rsp)
  400fe1:	e8 5a fe ff ff       	callq  400e40 <runtime.f64hash>
  400fe6:	48 8b 44 24 18       	mov    0x18(%rsp),%rax
  400feb:	48 8b 5c 24 20       	mov    0x20(%rsp),%rbx
  400ff0:	48 83 fb 00          	cmp    $0x0,%rbx
  400ff4:	74 2a                	je     401020 <runtime.c128hash+0x80>
  400ff6:	48 83 c3 08          	add    $0x8,%rbx
  400ffa:	48 89 1c 24          	mov    %rbx,(%rsp)
  400ffe:	48 c7 44 24 08 08 00 	movq   $0x8,0x8(%rsp)
  401005:	00 00 
  401007:	48 89 44 24 10       	mov    %rax,0x10(%rsp)
  40100c:	e8 2f fe ff ff       	callq  400e40 <runtime.f64hash>
  401011:	48 8b 5c 24 18       	mov    0x18(%rsp),%rbx
  401016:	48 89 5c 24 48       	mov    %rbx,0x48(%rsp)
  40101b:	48 83 c4 28          	add    $0x28,%rsp
  40101f:	c3                   	retq   
  401020:	89 03                	mov    %eax,(%rbx)
  401022:	eb d2                	jmp    400ff6 <runtime.c128hash+0x56>
  401024:	89 00                	mov    %eax,(%rax)
  401026:	eb a2                	jmp    400fca <runtime.c128hash+0x2a>
	...

0000000000401030 <runtime.interhash>:
  401030:	64 48 8b 0c 25 f0 ff 	mov    %fs:0xfffffffffffffff0,%rcx
  401037:	ff ff 
  401039:	48 3b 61 10          	cmp    0x10(%rcx),%rsp
  40103d:	77 07                	ja     401046 <runtime.interhash+0x16>
  40103f:	e8 0c bb 02 00       	callq  42cb50 <runtime.morestack_noctxt>
  401044:	eb ea                	jmp    401030 <runtime.interhash>
  401046:	48 83 ec 40          	sub    $0x40,%rsp
  40104a:	48 8b 7c 24 58       	mov    0x58(%rsp),%rdi
  40104f:	48 8b 54 24 48       	mov    0x48(%rsp),%rdx
  401054:	48 8b 02             	mov    (%rdx),%rax
  401057:	31 ed                	xor    %ebp,%ebp
  401059:	48 39 e8             	cmp    %rbp,%rax
  40105c:	75 0a                	jne    401068 <runtime.interhash+0x38>
  40105e:	48 89 7c 24 60       	mov    %rdi,0x60(%rsp)
  401063:	48 83 c4 40          	add    $0x40,%rsp
  401067:	c3                   	retq   
  401068:	48 8b 40 08          	mov    0x8(%rax),%rax
  40106c:	48 8b 68 10          	mov    0x10(%rax),%rbp
  401070:	48 8b 4d 00          	mov    0x0(%rbp),%rcx
  401074:	31 ed                	xor    %ebp,%ebp
  401076:	48 39 e9             	cmp    %rbp,%rcx
  401079:	75 7c                	jne    4010f7 <runtime.interhash+0xc7>
  40107b:	48 8d 1d 3e 7f 04 00 	lea    0x47f3e(%rip),%rbx        # 448fc0 <go.string.*+0x8ed8>
  401082:	48 8d 2c 24          	lea    (%rsp),%rbp
  401086:	48 89 ef             	mov    %rbp,%rdi
  401089:	48 89 de             	mov    %rbx,%rsi
  40108c:	48 a5                	movsq  %ds:(%rsi),%es:(%rdi)
  40108e:	48 a5                	movsq  %ds:(%rsi),%es:(%rdi)
  401090:	48 8b 70 28          	mov    0x28(%rax),%rsi
  401094:	48 83 fe 00          	cmp    $0x0,%rsi
  401098:	74 59                	je     4010f3 <runtime.interhash+0xc3>
  40109a:	48 8d 5c 24 10       	lea    0x10(%rsp),%rbx
  40109f:	48 89 df             	mov    %rbx,%rdi
  4010a2:	48 a5                	movsq  %ds:(%rsi),%es:(%rdi)
  4010a4:	48 a5                	movsq  %ds:(%rsi),%es:(%rdi)
  4010a6:	e8 c5 cc 00 00       	callq  40dd70 <runtime.concatstring2>
  4010ab:	48 8b 5c 24 20       	mov    0x20(%rsp),%rbx
  4010b0:	48 89 5c 24 30       	mov    %rbx,0x30(%rsp)
  4010b5:	48 8b 5c 24 28       	mov    0x28(%rsp),%rbx
  4010ba:	48 89 5c 24 38       	mov    %rbx,0x38(%rsp)
  4010bf:	48 8d 1d ba 6d 03 00 	lea    0x36dba(%rip),%rbx        # 437e80 <runtime.rodata+0x7e80>
  4010c6:	48 89 1c 24          	mov    %rbx,(%rsp)
  4010ca:	48 8d 5c 24 30       	lea    0x30(%rsp),%rbx
  4010cf:	48 89 5c 24 08       	mov    %rbx,0x8(%rsp)
  4010d4:	e8 a7 48 00 00       	callq  405980 <runtime.convT2E>
  4010d9:	48 8d 5c 24 10       	lea    0x10(%rsp),%rbx
  4010de:	48 8d 2c 24          	lea    (%rsp),%rbp
  4010e2:	48 89 ef             	mov    %rbp,%rdi
  4010e5:	48 89 de             	mov    %rbx,%rsi
  4010e8:	48 a5                	movsq  %ds:(%rsi),%es:(%rdi)
  4010ea:	48 a5                	movsq  %ds:(%rsi),%es:(%rdi)
  4010ec:	e8 cf 8d 00 00       	callq  409ec0 <runtime.gopanic>
  4010f1:	0f 0b                	ud2    
  4010f3:	89 06                	mov    %eax,(%rsi)
  4010f5:	eb a3                	jmp    40109a <runtime.interhash+0x6a>
  4010f7:	0f b6 58 0f          	movzbl 0xf(%rax),%ebx
  4010fb:	48 83 e3 20          	and    $0x20,%rbx
  4010ff:	80 fb 00             	cmp    $0x0,%bl
  401102:	0f 85 a7 00 00 00    	jne    4011af <runtime.interhash+0x17f>
  401108:	31 ed                	xor    %ebp,%ebp
  40110a:	40 80 fd 00          	cmp    $0x0,%bpl
  40110e:	74 58                	je     401168 <runtime.interhash+0x138>
  401110:	48 89 14 24          	mov    %rdx,(%rsp)
  401114:	48 83 3c 24 00       	cmpq   $0x0,(%rsp)
  401119:	74 44                	je     40115f <runtime.interhash+0x12f>
  40111b:	48 83 04 24 08       	addq   $0x8,(%rsp)
  401120:	48 8b 28             	mov    (%rax),%rbp
  401123:	48 89 6c 24 08       	mov    %rbp,0x8(%rsp)
  401128:	48 bb 21 a6 56 6a a1 	movabs $0x756ea16a56a621,%rbx
  40112f:	6e 75 00 
  401132:	48 31 fb             	xor    %rdi,%rbx
  401135:	48 89 5c 24 10       	mov    %rbx,0x10(%rsp)
  40113a:	48 8b 19             	mov    (%rcx),%rbx
  40113d:	48 89 ca             	mov    %rcx,%rdx
  401140:	ff d3                	callq  *%rbx
  401142:	48 8b 44 24 18       	mov    0x18(%rsp),%rax
  401147:	48 bb bf 63 8f bb 6b 	movabs $0x52ef6bbb8f63bf,%rbx
  40114e:	ef 52 00 
  401151:	48 0f af d8          	imul   %rax,%rbx
  401155:	48 89 5c 24 60       	mov    %rbx,0x60(%rsp)
  40115a:	48 83 c4 40          	add    $0x40,%rsp
  40115e:	c3                   	retq   
  40115f:	89 04 25 00 00 00 00 	mov    %eax,0x0
  401166:	eb b3                	jmp    40111b <runtime.interhash+0xeb>
  401168:	48 8b 6a 08          	mov    0x8(%rdx),%rbp
  40116c:	48 89 2c 24          	mov    %rbp,(%rsp)
  401170:	48 8b 28             	mov    (%rax),%rbp
  401173:	48 89 6c 24 08       	mov    %rbp,0x8(%rsp)
  401178:	48 bb 21 a6 56 6a a1 	movabs $0x756ea16a56a621,%rbx
  40117f:	6e 75 00 
  401182:	48 31 fb             	xor    %rdi,%rbx
  401185:	48 89 5c 24 10       	mov    %rbx,0x10(%rsp)
  40118a:	48 8b 19             	mov    (%rcx),%rbx
  40118d:	48 89 ca             	mov    %rcx,%rdx
  401190:	ff d3                	callq  *%rbx
  401192:	48 8b 44 24 18       	mov    0x18(%rsp),%rax
  401197:	48 bb bf 63 8f bb 6b 	movabs $0x52ef6bbb8f63bf,%rbx
  40119e:	ef 52 00 
  4011a1:	48 0f af d8          	imul   %rax,%rbx
  4011a5:	48 89 5c 24 60       	mov    %rbx,0x60(%rsp)
  4011aa:	48 83 c4 40          	add    $0x40,%rsp
  4011ae:	c3                   	retq   
  4011af:	48 c7 c5 01 00 00 00 	mov    $0x1,%rbp
  4011b6:	e9 4f ff ff ff       	jmpq   40110a <runtime.interhash+0xda>
  4011bb:	00 00                	add    %al,(%rax)
  4011bd:	00 00                	add    %al,(%rax)
	...

00000000004011c0 <runtime.nilinterhash>:
  4011c0:	64 48 8b 0c 25 f0 ff 	mov    %fs:0xfffffffffffffff0,%rcx
  4011c7:	ff ff 
  4011c9:	48 3b 61 10          	cmp    0x10(%rcx),%rsp
  4011cd:	77 07                	ja     4011d6 <runtime.nilinterhash+0x16>
  4011cf:	e8 7c b9 02 00       	callq  42cb50 <runtime.morestack_noctxt>
  4011d4:	eb ea                	jmp    4011c0 <runtime.nilinterhash>
  4011d6:	48 83 ec 40          	sub    $0x40,%rsp
  4011da:	48 8b 7c 24 58       	mov    0x58(%rsp),%rdi
  4011df:	48 8b 54 24 48       	mov    0x48(%rsp),%rdx
  4011e4:	48 8b 02             	mov    (%rdx),%rax
  4011e7:	31 ed                	xor    %ebp,%ebp
  4011e9:	48 39 e8             	cmp    %rbp,%rax
  4011ec:	75 0a                	jne    4011f8 <runtime.nilinterhash+0x38>
  4011ee:	48 89 7c 24 60       	mov    %rdi,0x60(%rsp)
  4011f3:	48 83 c4 40          	add    $0x40,%rsp
  4011f7:	c3                   	retq   
  4011f8:	48 8b 68 10          	mov    0x10(%rax),%rbp
  4011fc:	48 8b 4d 00          	mov    0x0(%rbp),%rcx
  401200:	31 ed                	xor    %ebp,%ebp
  401202:	48 39 e9             	cmp    %rbp,%rcx
  401205:	75 7c                	jne    401283 <runtime.nilinterhash+0xc3>
  401207:	48 8d 1d b2 7d 04 00 	lea    0x47db2(%rip),%rbx        # 448fc0 <go.string.*+0x8ed8>
  40120e:	48 8d 2c 24          	lea    (%rsp),%rbp
  401212:	48 89 ef             	mov    %rbp,%rdi
  401215:	48 89 de             	mov    %rbx,%rsi
  401218:	48 a5                	movsq  %ds:(%rsi),%es:(%rdi)
  40121a:	48 a5                	movsq  %ds:(%rsi),%es:(%rdi)
  40121c:	48 8b 70 28          	mov    0x28(%rax),%rsi
  401220:	48 83 fe 00          	cmp    $0x0,%rsi
  401224:	74 59                	je     40127f <runtime.nilinterhash+0xbf>
  401226:	48 8d 5c 24 10       	lea    0x10(%rsp),%rbx
  40122b:	48 89 df             	mov    %rbx,%rdi
  40122e:	48 a5                	movsq  %ds:(%rsi),%es:(%rdi)
  401230:	48 a5                	movsq  %ds:(%rsi),%es:(%rdi)
  401232:	e8 39 cb 00 00       	callq  40dd70 <runtime.concatstring2>
  401237:	48 8b 5c 24 20       	mov    0x20(%rsp),%rbx
  40123c:	48 89 5c 24 30       	mov    %rbx,0x30(%rsp)
  401241:	48 8b 5c 24 28       	mov    0x28(%rsp),%rbx
  401246:	48 89 5c 24 38       	mov    %rbx,0x38(%rsp)
  40124b:	48 8d 1d 2e 6c 03 00 	lea    0x36c2e(%rip),%rbx        # 437e80 <runtime.rodata+0x7e80>
  401252:	48 89 1c 24          	mov    %rbx,(%rsp)
  401256:	48 8d 5c 24 30       	lea    0x30(%rsp),%rbx
  40125b:	48 89 5c 24 08       	mov    %rbx,0x8(%rsp)
  401260:	e8 1b 47 00 00       	callq  405980 <runtime.convT2E>
  401265:	48 8d 5c 24 10       	lea    0x10(%rsp),%rbx
  40126a:	48 8d 2c 24          	lea    (%rsp),%rbp
  40126e:	48 89 ef             	mov    %rbp,%rdi
  401271:	48 89 de             	mov    %rbx,%rsi
  401274:	48 a5                	movsq  %ds:(%rsi),%es:(%rdi)
  401276:	48 a5                	movsq  %ds:(%rsi),%es:(%rdi)
  401278:	e8 43 8c 00 00       	callq  409ec0 <runtime.gopanic>
  40127d:	0f 0b                	ud2    
  40127f:	89 06                	mov    %eax,(%rsi)
  401281:	eb a3                	jmp    401226 <runtime.nilinterhash+0x66>
  401283:	0f b6 58 0f          	movzbl 0xf(%rax),%ebx
  401287:	48 83 e3 20          	and    $0x20,%rbx
  40128b:	80 fb 00             	cmp    $0x0,%bl
  40128e:	0f 85 a7 00 00 00    	jne    40133b <runtime.nilinterhash+0x17b>
  401294:	31 ed                	xor    %ebp,%ebp
  401296:	40 80 fd 00          	cmp    $0x0,%bpl
  40129a:	74 58                	je     4012f4 <runtime.nilinterhash+0x134>
  40129c:	48 89 14 24          	mov    %rdx,(%rsp)
  4012a0:	48 83 3c 24 00       	cmpq   $0x0,(%rsp)
  4012a5:	74 44                	je     4012eb <runtime.nilinterhash+0x12b>
  4012a7:	48 83 04 24 08       	addq   $0x8,(%rsp)
  4012ac:	48 8b 28             	mov    (%rax),%rbp
  4012af:	48 89 6c 24 08       	mov    %rbp,0x8(%rsp)
  4012b4:	48 bb 21 a6 56 6a a1 	movabs $0x756ea16a56a621,%rbx
  4012bb:	6e 75 00 
  4012be:	48 31 fb             	xor    %rdi,%rbx
  4012c1:	48 89 5c 24 10       	mov    %rbx,0x10(%rsp)
  4012c6:	48 8b 19             	mov    (%rcx),%rbx
  4012c9:	48 89 ca             	mov    %rcx,%rdx
  4012cc:	ff d3                	callq  *%rbx
  4012ce:	48 8b 44 24 18       	mov    0x18(%rsp),%rax
  4012d3:	48 bb bf 63 8f bb 6b 	movabs $0x52ef6bbb8f63bf,%rbx
  4012da:	ef 52 00 
  4012dd:	48 0f af d8          	imul   %rax,%rbx
  4012e1:	48 89 5c 24 60       	mov    %rbx,0x60(%rsp)
  4012e6:	48 83 c4 40          	add    $0x40,%rsp
  4012ea:	c3                   	retq   
  4012eb:	89 04 25 00 00 00 00 	mov    %eax,0x0
  4012f2:	eb b3                	jmp    4012a7 <runtime.nilinterhash+0xe7>
  4012f4:	48 8b 6a 08          	mov    0x8(%rdx),%rbp
  4012f8:	48 89 2c 24          	mov    %rbp,(%rsp)
  4012fc:	48 8b 28             	mov    (%rax),%rbp
  4012ff:	48 89 6c 24 08       	mov    %rbp,0x8(%rsp)
  401304:	48 bb 21 a6 56 6a a1 	movabs $0x756ea16a56a621,%rbx
  40130b:	6e 75 00 
  40130e:	48 31 fb             	xor    %rdi,%rbx
  401311:	48 89 5c 24 10       	mov    %rbx,0x10(%rsp)
  401316:	48 8b 19             	mov    (%rcx),%rbx
  401319:	48 89 ca             	mov    %rcx,%rdx
  40131c:	ff d3                	callq  *%rbx
  40131e:	48 8b 44 24 18       	mov    0x18(%rsp),%rax
  401323:	48 bb bf 63 8f bb 6b 	movabs $0x52ef6bbb8f63bf,%rbx
  40132a:	ef 52 00 
  40132d:	48 0f af d8          	imul   %rax,%rbx
  401331:	48 89 5c 24 60       	mov    %rbx,0x60(%rsp)
  401336:	48 83 c4 40          	add    $0x40,%rsp
  40133a:	c3                   	retq   
  40133b:	48 c7 c5 01 00 00 00 	mov    $0x1,%rbp
  401342:	e9 4f ff ff ff       	jmpq   401296 <runtime.nilinterhash+0xd6>
	...

0000000000401350 <runtime.memequal>:
  401350:	64 48 8b 0c 25 f0 ff 	mov    %fs:0xfffffffffffffff0,%rcx
  401357:	ff ff 
  401359:	48 3b 61 10          	cmp    0x10(%rcx),%rsp
  40135d:	77 07                	ja     401366 <runtime.memequal+0x16>
  40135f:	e8 ec b7 02 00       	callq  42cb50 <runtime.morestack_noctxt>
  401364:	eb ea                	jmp    401350 <runtime.memequal>
  401366:	48 83 ec 20          	sub    $0x20,%rsp
  40136a:	48 8b 4c 24 28       	mov    0x28(%rsp),%rcx
  40136f:	48 8b 44 24 30       	mov    0x30(%rsp),%rax
  401374:	48 39 c1             	cmp    %rax,%rcx
  401377:	75 0a                	jne    401383 <runtime.memequal+0x33>
  401379:	c6 44 24 40 01       	movb   $0x1,0x40(%rsp)
  40137e:	48 83 c4 20          	add    $0x20,%rsp
  401382:	c3                   	retq   
  401383:	48 89 0c 24          	mov    %rcx,(%rsp)
  401387:	48 89 44 24 08       	mov    %rax,0x8(%rsp)
  40138c:	48 8b 5c 24 38       	mov    0x38(%rsp),%rbx
  401391:	48 89 5c 24 10       	mov    %rbx,0x10(%rsp)
  401396:	e8 d5 ce 02 00       	callq  42e270 <runtime.memeq>
  40139b:	0f b6 5c 24 18       	movzbl 0x18(%rsp),%ebx
  4013a0:	88 5c 24 40          	mov    %bl,0x40(%rsp)
  4013a4:	48 83 c4 20          	add    $0x20,%rsp
  4013a8:	c3                   	retq   
  4013a9:	00 00                	add    %al,(%rax)
  4013ab:	00 00                	add    %al,(%rax)
  4013ad:	00 00                	add    %al,(%rax)
	...

00000000004013b0 <runtime.memequal0>:
  4013b0:	c6 44 24 20 01       	movb   $0x1,0x20(%rsp)
  4013b5:	c3                   	retq   
	...

00000000004013c0 <runtime.memequal8>:
  4013c0:	48 8b 5c 24 08       	mov    0x8(%rsp),%rbx
  4013c5:	0f b6 1b             	movzbl (%rbx),%ebx
  4013c8:	48 8b 6c 24 10       	mov    0x10(%rsp),%rbp
  4013cd:	0f b6 6d 00          	movzbl 0x0(%rbp),%ebp
  4013d1:	40 38 eb             	cmp    %bpl,%bl
  4013d4:	74 06                	je     4013dc <runtime.memequal8+0x1c>
  4013d6:	c6 44 24 20 00       	movb   $0x0,0x20(%rsp)
  4013db:	c3                   	retq   
  4013dc:	c6 44 24 20 01       	movb   $0x1,0x20(%rsp)
  4013e1:	eb f8                	jmp    4013db <runtime.memequal8+0x1b>
	...

00000000004013f0 <runtime.memequal16>:
  4013f0:	48 8b 5c 24 08       	mov    0x8(%rsp),%rbx
  4013f5:	48 0f b7 1b          	movzwq (%rbx),%rbx
  4013f9:	48 8b 6c 24 10       	mov    0x10(%rsp),%rbp
  4013fe:	48 0f b7 6d 00       	movzwq 0x0(%rbp),%rbp
  401403:	66 39 eb             	cmp    %bp,%bx
  401406:	74 06                	je     40140e <runtime.memequal16+0x1e>
  401408:	c6 44 24 20 00       	movb   $0x0,0x20(%rsp)
  40140d:	c3                   	retq   
  40140e:	c6 44 24 20 01       	movb   $0x1,0x20(%rsp)
  401413:	eb f8                	jmp    40140d <runtime.memequal16+0x1d>
	...

0000000000401420 <runtime.memequal32>:
  401420:	48 8b 5c 24 08       	mov    0x8(%rsp),%rbx
  401425:	8b 1b                	mov    (%rbx),%ebx
  401427:	48 8b 6c 24 10       	mov    0x10(%rsp),%rbp
  40142c:	8b 6d 00             	mov    0x0(%rbp),%ebp
  40142f:	39 eb                	cmp    %ebp,%ebx
  401431:	74 06                	je     401439 <runtime.memequal32+0x19>
  401433:	c6 44 24 20 00       	movb   $0x0,0x20(%rsp)
  401438:	c3                   	retq   
  401439:	c6 44 24 20 01       	movb   $0x1,0x20(%rsp)
  40143e:	eb f8                	jmp    401438 <runtime.memequal32+0x18>

0000000000401440 <runtime.memequal64>:
  401440:	48 8b 5c 24 08       	mov    0x8(%rsp),%rbx
  401445:	48 8b 1b             	mov    (%rbx),%rbx
  401448:	48 8b 6c 24 10       	mov    0x10(%rsp),%rbp
  40144d:	48 8b 6d 00          	mov    0x0(%rbp),%rbp
  401451:	48 39 eb             	cmp    %rbp,%rbx
  401454:	74 06                	je     40145c <runtime.memequal64+0x1c>
  401456:	c6 44 24 20 00       	movb   $0x0,0x20(%rsp)
  40145b:	c3                   	retq   
  40145c:	c6 44 24 20 01       	movb   $0x1,0x20(%rsp)
  401461:	eb f8                	jmp    40145b <runtime.memequal64+0x1b>
	...

0000000000401470 <runtime.memequal128>:
  401470:	48 8b 4c 24 08       	mov    0x8(%rsp),%rcx
  401475:	48 83 f9 00          	cmp    $0x0,%rcx
  401479:	74 34                	je     4014af <runtime.memequal128+0x3f>
  40147b:	48 8b 44 24 10       	mov    0x10(%rsp),%rax
  401480:	48 83 f8 00          	cmp    $0x0,%rax
  401484:	74 25                	je     4014ab <runtime.memequal128+0x3b>
  401486:	48 8b 19             	mov    (%rcx),%rbx
  401489:	48 8b 28             	mov    (%rax),%rbp
  40148c:	48 39 eb             	cmp    %rbp,%rbx
  40148f:	75 13                	jne    4014a4 <runtime.memequal128+0x34>
  401491:	48 8b 59 08          	mov    0x8(%rcx),%rbx
  401495:	48 8b 68 08          	mov    0x8(%rax),%rbp
  401499:	48 39 eb             	cmp    %rbp,%rbx
  40149c:	75 06                	jne    4014a4 <runtime.memequal128+0x34>
  40149e:	c6 44 24 20 01       	movb   $0x1,0x20(%rsp)
  4014a3:	c3                   	retq   
  4014a4:	c6 44 24 20 00       	movb   $0x0,0x20(%rsp)
  4014a9:	eb f8                	jmp    4014a3 <runtime.memequal128+0x33>
  4014ab:	89 00                	mov    %eax,(%rax)
  4014ad:	eb d7                	jmp    401486 <runtime.memequal128+0x16>
  4014af:	89 01                	mov    %eax,(%rcx)
  4014b1:	eb c8                	jmp    40147b <runtime.memequal128+0xb>
	...

00000000004014c0 <runtime.f32equal>:
  4014c0:	48 8b 5c 24 08       	mov    0x8(%rsp),%rbx
  4014c5:	f3 0f 10 03          	movss  (%rbx),%xmm0
  4014c9:	48 8b 5c 24 10       	mov    0x10(%rsp),%rbx
  4014ce:	f3 0f 10 0b          	movss  (%rbx),%xmm1
  4014d2:	0f 2e c8             	ucomiss %xmm0,%xmm1
  4014d5:	75 08                	jne    4014df <runtime.f32equal+0x1f>
  4014d7:	7a 06                	jp     4014df <runtime.f32equal+0x1f>
  4014d9:	c6 44 24 20 01       	movb   $0x1,0x20(%rsp)
  4014de:	c3                   	retq   
  4014df:	c6 44 24 20 00       	movb   $0x0,0x20(%rsp)
  4014e4:	eb f8                	jmp    4014de <runtime.f32equal+0x1e>
	...

00000000004014f0 <runtime.f64equal>:
  4014f0:	48 8b 5c 24 08       	mov    0x8(%rsp),%rbx
  4014f5:	f2 0f 10 03          	movsd  (%rbx),%xmm0
  4014f9:	48 8b 5c 24 10       	mov    0x10(%rsp),%rbx
  4014fe:	f2 0f 10 0b          	movsd  (%rbx),%xmm1
  401502:	66 0f 2e c8          	ucomisd %xmm0,%xmm1
  401506:	75 08                	jne    401510 <runtime.f64equal+0x20>
  401508:	7a 06                	jp     401510 <runtime.f64equal+0x20>
  40150a:	c6 44 24 20 01       	movb   $0x1,0x20(%rsp)
  40150f:	c3                   	retq   
  401510:	c6 44 24 20 00       	movb   $0x0,0x20(%rsp)
  401515:	eb f8                	jmp    40150f <runtime.f64equal+0x1f>
	...

0000000000401520 <runtime.c64equal>:
  401520:	48 8b 5c 24 10       	mov    0x10(%rsp),%rbx
  401525:	f3 0f 10 23          	movss  (%rbx),%xmm4
  401529:	f3 0f 10 5b 04       	movss  0x4(%rbx),%xmm3
  40152e:	48 8b 5c 24 08       	mov    0x8(%rsp),%rbx
  401533:	f3 0f 10 03          	movss  (%rbx),%xmm0
  401537:	f3 0f 10 53 04       	movss  0x4(%rbx),%xmm2
  40153c:	0f 2e e0             	ucomiss %xmm0,%xmm4
  40153f:	75 0f                	jne    401550 <runtime.c64equal+0x30>
  401541:	7a 0d                	jp     401550 <runtime.c64equal+0x30>
  401543:	0f 2e da             	ucomiss %xmm2,%xmm3
  401546:	75 08                	jne    401550 <runtime.c64equal+0x30>
  401548:	7a 06                	jp     401550 <runtime.c64equal+0x30>
  40154a:	c6 44 24 20 01       	movb   $0x1,0x20(%rsp)
  40154f:	c3                   	retq   
  401550:	c6 44 24 20 00       	movb   $0x0,0x20(%rsp)
  401555:	eb f8                	jmp    40154f <runtime.c64equal+0x2f>
	...

0000000000401560 <runtime.c128equal>:
  401560:	48 8b 5c 24 10       	mov    0x10(%rsp),%rbx
  401565:	f2 0f 10 23          	movsd  (%rbx),%xmm4
  401569:	f2 0f 10 5b 08       	movsd  0x8(%rbx),%xmm3
  40156e:	48 8b 5c 24 08       	mov    0x8(%rsp),%rbx
  401573:	f2 0f 10 03          	movsd  (%rbx),%xmm0
  401577:	f2 0f 10 53 08       	movsd  0x8(%rbx),%xmm2
  40157c:	66 0f 2e e0          	ucomisd %xmm0,%xmm4
  401580:	75 10                	jne    401592 <runtime.c128equal+0x32>
  401582:	7a 0e                	jp     401592 <runtime.c128equal+0x32>
  401584:	66 0f 2e da          	ucomisd %xmm2,%xmm3
  401588:	75 08                	jne    401592 <runtime.c128equal+0x32>
  40158a:	7a 06                	jp     401592 <runtime.c128equal+0x32>
  40158c:	c6 44 24 20 01       	movb   $0x1,0x20(%rsp)
  401591:	c3                   	retq   
  401592:	c6 44 24 20 00       	movb   $0x0,0x20(%rsp)
  401597:	eb f8                	jmp    401591 <runtime.c128equal+0x31>
  401599:	00 00                	add    %al,(%rax)
  40159b:	00 00                	add    %al,(%rax)
  40159d:	00 00                	add    %al,(%rax)
	...

00000000004015a0 <runtime.strequal>:
  4015a0:	64 48 8b 0c 25 f0 ff 	mov    %fs:0xfffffffffffffff0,%rcx
  4015a7:	ff ff 
  4015a9:	48 3b 61 10          	cmp    0x10(%rcx),%rsp
  4015ad:	77 07                	ja     4015b6 <runtime.strequal+0x16>
  4015af:	e8 9c b5 02 00       	callq  42cb50 <runtime.morestack_noctxt>
  4015b4:	eb ea                	jmp    4015a0 <runtime.strequal>
  4015b6:	48 83 ec 48          	sub    $0x48,%rsp
  4015ba:	48 8b 5c 24 50       	mov    0x50(%rsp),%rbx
  4015bf:	48 83 fb 00          	cmp    $0x0,%rbx
  4015c3:	74 69                	je     40162e <runtime.strequal+0x8e>
  4015c5:	48 8b 33             	mov    (%rbx),%rsi
  4015c8:	48 8b 4b 08          	mov    0x8(%rbx),%rcx
  4015cc:	48 8b 5c 24 58       	mov    0x58(%rsp),%rbx
  4015d1:	48 83 fb 00          	cmp    $0x0,%rbx
  4015d5:	74 53                	je     40162a <runtime.strequal+0x8a>
  4015d7:	48 8b 13             	mov    (%rbx),%rdx
  4015da:	48 8b 43 08          	mov    0x8(%rbx),%rax
  4015de:	48 39 c1             	cmp    %rax,%rcx
  4015e1:	75 40                	jne    401623 <runtime.strequal+0x83>
  4015e3:	48 89 74 24 38       	mov    %rsi,0x38(%rsp)
  4015e8:	48 89 34 24          	mov    %rsi,(%rsp)
  4015ec:	48 89 4c 24 40       	mov    %rcx,0x40(%rsp)
  4015f1:	48 89 4c 24 08       	mov    %rcx,0x8(%rsp)
  4015f6:	48 89 54 24 28       	mov    %rdx,0x28(%rsp)
  4015fb:	48 89 54 24 10       	mov    %rdx,0x10(%rsp)
  401600:	48 89 44 24 30       	mov    %rax,0x30(%rsp)
  401605:	48 89 44 24 18       	mov    %rax,0x18(%rsp)
  40160a:	e8 81 cc 02 00       	callq  42e290 <runtime.eqstring>
  40160f:	0f b6 5c 24 20       	movzbl 0x20(%rsp),%ebx
  401614:	80 fb 00             	cmp    $0x0,%bl
  401617:	74 0a                	je     401623 <runtime.strequal+0x83>
  401619:	c6 44 24 68 01       	movb   $0x1,0x68(%rsp)
  40161e:	48 83 c4 48          	add    $0x48,%rsp
  401622:	c3                   	retq   
  401623:	c6 44 24 68 00       	movb   $0x0,0x68(%rsp)
  401628:	eb f4                	jmp    40161e <runtime.strequal+0x7e>
  40162a:	89 03                	mov    %eax,(%rbx)
  40162c:	eb a9                	jmp    4015d7 <runtime.strequal+0x37>
  40162e:	89 03                	mov    %eax,(%rbx)
  401630:	eb 93                	jmp    4015c5 <runtime.strequal+0x25>
	...

0000000000401640 <runtime.interequal>:
  401640:	64 48 8b 0c 25 f0 ff 	mov    %fs:0xfffffffffffffff0,%rcx
  401647:	ff ff 
  401649:	48 3b 61 10          	cmp    0x10(%rcx),%rsp
  40164d:	77 07                	ja     401656 <runtime.interequal+0x16>
  40164f:	e8 fc b4 02 00       	callq  42cb50 <runtime.morestack_noctxt>
  401654:	eb ea                	jmp    401640 <runtime.interequal>
  401656:	48 83 ec 28          	sub    $0x28,%rsp
  40165a:	48 8b 74 24 30       	mov    0x30(%rsp),%rsi
  40165f:	48 83 fe 00          	cmp    $0x0,%rsi
  401663:	74 39                	je     40169e <runtime.interequal+0x5e>
  401665:	48 8d 2c 24          	lea    (%rsp),%rbp
  401669:	48 89 ef             	mov    %rbp,%rdi
  40166c:	48 a5                	movsq  %ds:(%rsi),%es:(%rdi)
  40166e:	48 a5                	movsq  %ds:(%rsi),%es:(%rdi)
  401670:	48 8b 74 24 38       	mov    0x38(%rsp),%rsi
  401675:	48 83 fe 00          	cmp    $0x0,%rsi
  401679:	74 1f                	je     40169a <runtime.interequal+0x5a>
  40167b:	48 8d 6c 24 10       	lea    0x10(%rsp),%rbp
  401680:	48 89 ef             	mov    %rbp,%rdi
  401683:	48 a5                	movsq  %ds:(%rsi),%es:(%rdi)
  401685:	48 a5                	movsq  %ds:(%rsi),%es:(%rdi)
  401687:	e8 14 02 00 00       	callq  4018a0 <runtime.ifaceeq>
  40168c:	0f b6 5c 24 20       	movzbl 0x20(%rsp),%ebx
  401691:	88 5c 24 48          	mov    %bl,0x48(%rsp)
  401695:	48 83 c4 28          	add    $0x28,%rsp
  401699:	c3                   	retq   
  40169a:	89 06                	mov    %eax,(%rsi)
  40169c:	eb dd                	jmp    40167b <runtime.interequal+0x3b>
  40169e:	89 06                	mov    %eax,(%rsi)
  4016a0:	eb c3                	jmp    401665 <runtime.interequal+0x25>
	...

00000000004016b0 <runtime.nilinterequal>:
  4016b0:	64 48 8b 0c 25 f0 ff 	mov    %fs:0xfffffffffffffff0,%rcx
  4016b7:	ff ff 
  4016b9:	48 3b 61 10          	cmp    0x10(%rcx),%rsp
  4016bd:	77 07                	ja     4016c6 <runtime.nilinterequal+0x16>
  4016bf:	e8 8c b4 02 00       	callq  42cb50 <runtime.morestack_noctxt>
  4016c4:	eb ea                	jmp    4016b0 <runtime.nilinterequal>
  4016c6:	48 83 ec 28          	sub    $0x28,%rsp
  4016ca:	48 8b 74 24 30       	mov    0x30(%rsp),%rsi
  4016cf:	48 83 fe 00          	cmp    $0x0,%rsi
  4016d3:	74 39                	je     40170e <runtime.nilinterequal+0x5e>
  4016d5:	48 8d 2c 24          	lea    (%rsp),%rbp
  4016d9:	48 89 ef             	mov    %rbp,%rdi
  4016dc:	48 a5                	movsq  %ds:(%rsi),%es:(%rdi)
  4016de:	48 a5                	movsq  %ds:(%rsi),%es:(%rdi)
  4016e0:	48 8b 74 24 38       	mov    0x38(%rsp),%rsi
  4016e5:	48 83 fe 00          	cmp    $0x0,%rsi
  4016e9:	74 1f                	je     40170a <runtime.nilinterequal+0x5a>
  4016eb:	48 8d 6c 24 10       	lea    0x10(%rsp),%rbp
  4016f0:	48 89 ef             	mov    %rbp,%rdi
  4016f3:	48 a5                	movsq  %ds:(%rsi),%es:(%rdi)
  4016f5:	48 a5                	movsq  %ds:(%rsi),%es:(%rdi)
  4016f7:	e8 24 00 00 00       	callq  401720 <runtime.efaceeq>
  4016fc:	0f b6 5c 24 20       	movzbl 0x20(%rsp),%ebx
  401701:	88 5c 24 48          	mov    %bl,0x48(%rsp)
  401705:	48 83 c4 28          	add    $0x28,%rsp
  401709:	c3                   	retq   
  40170a:	89 06                	mov    %eax,(%rsi)
  40170c:	eb dd                	jmp    4016eb <runtime.nilinterequal+0x3b>
  40170e:	89 06                	mov    %eax,(%rsi)
  401710:	eb c3                	jmp    4016d5 <runtime.nilinterequal+0x25>
	...

0000000000401720 <runtime.efaceeq>:
  401720:	64 48 8b 0c 25 f0 ff 	mov    %fs:0xfffffffffffffff0,%rcx
  401727:	ff ff 
  401729:	48 3b 61 10          	cmp    0x10(%rcx),%rsp
  40172d:	77 07                	ja     401736 <runtime.efaceeq+0x16>
  40172f:	e8 1c b4 02 00       	callq  42cb50 <runtime.morestack_noctxt>
  401734:	eb ea                	jmp    401720 <runtime.efaceeq>
  401736:	48 83 ec 40          	sub    $0x40,%rsp
  40173a:	48 8d 5c 24 48       	lea    0x48(%rsp),%rbx
  40173f:	48 89 d9             	mov    %rbx,%rcx
  401742:	48 8d 5c 24 58       	lea    0x58(%rsp),%rbx
  401747:	48 89 de             	mov    %rbx,%rsi
  40174a:	48 8b 01             	mov    (%rcx),%rax
  40174d:	48 8b 1b             	mov    (%rbx),%rbx
  401750:	48 39 c3             	cmp    %rax,%rbx
  401753:	74 0a                	je     40175f <runtime.efaceeq+0x3f>
  401755:	c6 44 24 68 00       	movb   $0x0,0x68(%rsp)
  40175a:	48 83 c4 40          	add    $0x40,%rsp
  40175e:	c3                   	retq   
  40175f:	31 ed                	xor    %ebp,%ebp
  401761:	48 39 e8             	cmp    %rbp,%rax
  401764:	75 0a                	jne    401770 <runtime.efaceeq+0x50>
  401766:	c6 44 24 68 01       	movb   $0x1,0x68(%rsp)
  40176b:	48 83 c4 40          	add    $0x40,%rsp
  40176f:	c3                   	retq   
  401770:	48 8b 68 10          	mov    0x10(%rax),%rbp
  401774:	48 8b 55 08          	mov    0x8(%rbp),%rdx
  401778:	31 ed                	xor    %ebp,%ebp
  40177a:	48 39 ea             	cmp    %rbp,%rdx
  40177d:	75 7c                	jne    4017fb <runtime.efaceeq+0xdb>
  40177f:	48 8d 1d 3a 74 04 00 	lea    0x4743a(%rip),%rbx        # 448bc0 <go.string.*+0x8ad8>
  401786:	48 8d 2c 24          	lea    (%rsp),%rbp
  40178a:	48 89 ef             	mov    %rbp,%rdi
  40178d:	48 89 de             	mov    %rbx,%rsi
  401790:	48 a5                	movsq  %ds:(%rsi),%es:(%rdi)
  401792:	48 a5                	movsq  %ds:(%rsi),%es:(%rdi)
  401794:	48 8b 70 28          	mov    0x28(%rax),%rsi
  401798:	48 83 fe 00          	cmp    $0x0,%rsi
  40179c:	74 59                	je     4017f7 <runtime.efaceeq+0xd7>
  40179e:	48 8d 5c 24 10       	lea    0x10(%rsp),%rbx
  4017a3:	48 89 df             	mov    %rbx,%rdi
  4017a6:	48 a5                	movsq  %ds:(%rsi),%es:(%rdi)
  4017a8:	48 a5                	movsq  %ds:(%rsi),%es:(%rdi)
  4017aa:	e8 c1 c5 00 00       	callq  40dd70 <runtime.concatstring2>
  4017af:	48 8b 5c 24 20       	mov    0x20(%rsp),%rbx
  4017b4:	48 89 5c 24 30       	mov    %rbx,0x30(%rsp)
  4017b9:	48 8b 5c 24 28       	mov    0x28(%rsp),%rbx
  4017be:	48 89 5c 24 38       	mov    %rbx,0x38(%rsp)
  4017c3:	48 8d 1d b6 66 03 00 	lea    0x366b6(%rip),%rbx        # 437e80 <runtime.rodata+0x7e80>
  4017ca:	48 89 1c 24          	mov    %rbx,(%rsp)
  4017ce:	48 8d 5c 24 30       	lea    0x30(%rsp),%rbx
  4017d3:	48 89 5c 24 08       	mov    %rbx,0x8(%rsp)
  4017d8:	e8 a3 41 00 00       	callq  405980 <runtime.convT2E>
  4017dd:	48 8d 5c 24 10       	lea    0x10(%rsp),%rbx
  4017e2:	48 8d 2c 24          	lea    (%rsp),%rbp
  4017e6:	48 89 ef             	mov    %rbp,%rdi
  4017e9:	48 89 de             	mov    %rbx,%rsi
  4017ec:	48 a5                	movsq  %ds:(%rsi),%es:(%rdi)
  4017ee:	48 a5                	movsq  %ds:(%rsi),%es:(%rdi)
  4017f0:	e8 cb 86 00 00       	callq  409ec0 <runtime.gopanic>
  4017f5:	0f 0b                	ud2    
  4017f7:	89 06                	mov    %eax,(%rsi)
  4017f9:	eb a3                	jmp    40179e <runtime.efaceeq+0x7e>
  4017fb:	0f b6 58 0f          	movzbl 0xf(%rax),%ebx
  4017ff:	48 83 e3 20          	and    $0x20,%rbx
  401803:	80 fb 00             	cmp    $0x0,%bl
  401806:	0f 85 82 00 00 00    	jne    40188e <runtime.efaceeq+0x16e>
  40180c:	31 ed                	xor    %ebp,%ebp
  40180e:	40 80 fd 00          	cmp    $0x0,%bpl
  401812:	74 4e                	je     401862 <runtime.efaceeq+0x142>
  401814:	48 83 f9 00          	cmp    $0x0,%rcx
  401818:	74 44                	je     40185e <runtime.efaceeq+0x13e>
  40181a:	48 83 c1 08          	add    $0x8,%rcx
  40181e:	48 89 cd             	mov    %rcx,%rbp
  401821:	48 83 f5 00          	xor    $0x0,%rbp
  401825:	48 89 f1             	mov    %rsi,%rcx
  401828:	48 83 fe 00          	cmp    $0x0,%rsi
  40182c:	74 2c                	je     40185a <runtime.efaceeq+0x13a>
  40182e:	48 83 c1 08          	add    $0x8,%rcx
  401832:	48 83 f1 00          	xor    $0x0,%rcx
  401836:	48 89 2c 24          	mov    %rbp,(%rsp)
  40183a:	48 89 4c 24 08       	mov    %rcx,0x8(%rsp)
  40183f:	48 8b 28             	mov    (%rax),%rbp
  401842:	48 89 6c 24 10       	mov    %rbp,0x10(%rsp)
  401847:	48 8b 1a             	mov    (%rdx),%rbx
  40184a:	ff d3                	callq  *%rbx
  40184c:	0f b6 5c 24 18       	movzbl 0x18(%rsp),%ebx
  401851:	88 5c 24 68          	mov    %bl,0x68(%rsp)
  401855:	48 83 c4 40          	add    $0x40,%rsp
  401859:	c3                   	retq   
  40185a:	89 06                	mov    %eax,(%rsi)
  40185c:	eb d0                	jmp    40182e <runtime.efaceeq+0x10e>
  40185e:	89 01                	mov    %eax,(%rcx)
  401860:	eb b8                	jmp    40181a <runtime.efaceeq+0xfa>
  401862:	48 8b 69 08          	mov    0x8(%rcx),%rbp
  401866:	48 89 2c 24          	mov    %rbp,(%rsp)
  40186a:	48 8b 6e 08          	mov    0x8(%rsi),%rbp
  40186e:	48 89 6c 24 08       	mov    %rbp,0x8(%rsp)
  401873:	48 8b 28             	mov    (%rax),%rbp
  401876:	48 89 6c 24 10       	mov    %rbp,0x10(%rsp)
  40187b:	48 8b 1a             	mov    (%rdx),%rbx
  40187e:	ff d3                	callq  *%rbx
  401880:	0f b6 5c 24 18       	movzbl 0x18(%rsp),%ebx
  401885:	88 5c 24 68          	mov    %bl,0x68(%rsp)
  401889:	48 83 c4 40          	add    $0x40,%rsp
  40188d:	c3                   	retq   
  40188e:	48 c7 c5 01 00 00 00 	mov    $0x1,%rbp
  401895:	e9 74 ff ff ff       	jmpq   40180e <runtime.efaceeq+0xee>
  40189a:	00 00                	add    %al,(%rax)
  40189c:	00 00                	add    %al,(%rax)
	...

00000000004018a0 <runtime.ifaceeq>:
  4018a0:	64 48 8b 0c 25 f0 ff 	mov    %fs:0xfffffffffffffff0,%rcx
  4018a7:	ff ff 
  4018a9:	48 3b 61 10          	cmp    0x10(%rcx),%rsp
  4018ad:	77 07                	ja     4018b6 <runtime.ifaceeq+0x16>
  4018af:	e8 9c b2 02 00       	callq  42cb50 <runtime.morestack_noctxt>
  4018b4:	eb ea                	jmp    4018a0 <runtime.ifaceeq>
  4018b6:	48 83 ec 40          	sub    $0x40,%rsp
  4018ba:	48 8d 5c 24 48       	lea    0x48(%rsp),%rbx
  4018bf:	48 89 d9             	mov    %rbx,%rcx
  4018c2:	48 8d 5c 24 58       	lea    0x58(%rsp),%rbx
  4018c7:	48 89 de             	mov    %rbx,%rsi
  4018ca:	48 8b 01             	mov    (%rcx),%rax
  4018cd:	48 8b 1b             	mov    (%rbx),%rbx
  4018d0:	48 39 c3             	cmp    %rax,%rbx
  4018d3:	74 0a                	je     4018df <runtime.ifaceeq+0x3f>
  4018d5:	c6 44 24 68 00       	movb   $0x0,0x68(%rsp)
  4018da:	48 83 c4 40          	add    $0x40,%rsp
  4018de:	c3                   	retq   
  4018df:	31 ed                	xor    %ebp,%ebp
  4018e1:	48 39 e8             	cmp    %rbp,%rax
  4018e4:	75 0a                	jne    4018f0 <runtime.ifaceeq+0x50>
  4018e6:	c6 44 24 68 01       	movb   $0x1,0x68(%rsp)
  4018eb:	48 83 c4 40          	add    $0x40,%rsp
  4018ef:	c3                   	retq   
  4018f0:	48 8b 40 08          	mov    0x8(%rax),%rax
  4018f4:	48 8b 68 10          	mov    0x10(%rax),%rbp
  4018f8:	48 8b 55 08          	mov    0x8(%rbp),%rdx
  4018fc:	31 ed                	xor    %ebp,%ebp
  4018fe:	48 39 ea             	cmp    %rbp,%rdx
  401901:	75 7c                	jne    40197f <runtime.ifaceeq+0xdf>
  401903:	48 8d 1d b6 72 04 00 	lea    0x472b6(%rip),%rbx        # 448bc0 <go.string.*+0x8ad8>
  40190a:	48 8d 2c 24          	lea    (%rsp),%rbp
  40190e:	48 89 ef             	mov    %rbp,%rdi
  401911:	48 89 de             	mov    %rbx,%rsi
  401914:	48 a5                	movsq  %ds:(%rsi),%es:(%rdi)
  401916:	48 a5                	movsq  %ds:(%rsi),%es:(%rdi)
  401918:	48 8b 70 28          	mov    0x28(%rax),%rsi
  40191c:	48 83 fe 00          	cmp    $0x0,%rsi
  401920:	74 59                	je     40197b <runtime.ifaceeq+0xdb>
  401922:	48 8d 5c 24 10       	lea    0x10(%rsp),%rbx
  401927:	48 89 df             	mov    %rbx,%rdi
  40192a:	48 a5                	movsq  %ds:(%rsi),%es:(%rdi)
  40192c:	48 a5                	movsq  %ds:(%rsi),%es:(%rdi)
  40192e:	e8 3d c4 00 00       	callq  40dd70 <runtime.concatstring2>
  401933:	48 8b 5c 24 20       	mov    0x20(%rsp),%rbx
  401938:	48 89 5c 24 30       	mov    %rbx,0x30(%rsp)
  40193d:	48 8b 5c 24 28       	mov    0x28(%rsp),%rbx
  401942:	48 89 5c 24 38       	mov    %rbx,0x38(%rsp)
  401947:	48 8d 1d 32 65 03 00 	lea    0x36532(%rip),%rbx        # 437e80 <runtime.rodata+0x7e80>
  40194e:	48 89 1c 24          	mov    %rbx,(%rsp)
  401952:	48 8d 5c 24 30       	lea    0x30(%rsp),%rbx
  401957:	48 89 5c 24 08       	mov    %rbx,0x8(%rsp)
  40195c:	e8 1f 40 00 00       	callq  405980 <runtime.convT2E>
  401961:	48 8d 5c 24 10       	lea    0x10(%rsp),%rbx
  401966:	48 8d 2c 24          	lea    (%rsp),%rbp
  40196a:	48 89 ef             	mov    %rbp,%rdi
  40196d:	48 89 de             	mov    %rbx,%rsi
  401970:	48 a5                	movsq  %ds:(%rsi),%es:(%rdi)
  401972:	48 a5                	movsq  %ds:(%rsi),%es:(%rdi)
  401974:	e8 47 85 00 00       	callq  409ec0 <runtime.gopanic>
  401979:	0f 0b                	ud2    
  40197b:	89 06                	mov    %eax,(%rsi)
  40197d:	eb a3                	jmp    401922 <runtime.ifaceeq+0x82>
  40197f:	0f b6 58 0f          	movzbl 0xf(%rax),%ebx
  401983:	48 83 e3 20          	and    $0x20,%rbx
  401987:	80 fb 00             	cmp    $0x0,%bl
  40198a:	0f 85 82 00 00 00    	jne    401a12 <runtime.ifaceeq+0x172>
  401990:	31 ed                	xor    %ebp,%ebp
  401992:	40 80 fd 00          	cmp    $0x0,%bpl
  401996:	74 4e                	je     4019e6 <runtime.ifaceeq+0x146>
  401998:	48 83 f9 00          	cmp    $0x0,%rcx
  40199c:	74 44                	je     4019e2 <runtime.ifaceeq+0x142>
  40199e:	48 83 c1 08          	add    $0x8,%rcx
  4019a2:	48 89 cd             	mov    %rcx,%rbp
  4019a5:	48 83 f5 00          	xor    $0x0,%rbp
  4019a9:	48 89 f1             	mov    %rsi,%rcx
  4019ac:	48 83 fe 00          	cmp    $0x0,%rsi
  4019b0:	74 2c                	je     4019de <runtime.ifaceeq+0x13e>
  4019b2:	48 83 c1 08          	add    $0x8,%rcx
  4019b6:	48 83 f1 00          	xor    $0x0,%rcx
  4019ba:	48 89 2c 24          	mov    %rbp,(%rsp)
  4019be:	48 89 4c 24 08       	mov    %rcx,0x8(%rsp)
  4019c3:	48 8b 28             	mov    (%rax),%rbp
  4019c6:	48 89 6c 24 10       	mov    %rbp,0x10(%rsp)
  4019cb:	48 8b 1a             	mov    (%rdx),%rbx
  4019ce:	ff d3                	callq  *%rbx
  4019d0:	0f b6 5c 24 18       	movzbl 0x18(%rsp),%ebx
  4019d5:	88 5c 24 68          	mov    %bl,0x68(%rsp)
  4019d9:	48 83 c4 40          	add    $0x40,%rsp
  4019dd:	c3                   	retq   
  4019de:	89 06                	mov    %eax,(%rsi)
  4019e0:	eb d0                	jmp    4019b2 <runtime.ifaceeq+0x112>
  4019e2:	89 01                	mov    %eax,(%rcx)
  4019e4:	eb b8                	jmp    40199e <runtime.ifaceeq+0xfe>
  4019e6:	48 8b 69 08          	mov    0x8(%rcx),%rbp
  4019ea:	48 89 2c 24          	mov    %rbp,(%rsp)
  4019ee:	48 8b 6e 08          	mov    0x8(%rsi),%rbp
  4019f2:	48 89 6c 24 08       	mov    %rbp,0x8(%rsp)
  4019f7:	48 8b 28             	mov    (%rax),%rbp
  4019fa:	48 89 6c 24 10       	mov    %rbp,0x10(%rsp)
  4019ff:	48 8b 1a             	mov    (%rdx),%rbx
  401a02:	ff d3                	callq  *%rbx
  401a04:	0f b6 5c 24 18       	movzbl 0x18(%rsp),%ebx
  401a09:	88 5c 24 68          	mov    %bl,0x68(%rsp)
  401a0d:	48 83 c4 40          	add    $0x40,%rsp
  401a11:	c3                   	retq   
  401a12:	48 c7 c5 01 00 00 00 	mov    $0x1,%rbp
  401a19:	e9 74 ff ff ff       	jmpq   401992 <runtime.ifaceeq+0xf2>
	...

0000000000401a20 <runtime.init.1>:
  401a20:	64 48 8b 0c 25 f0 ff 	mov    %fs:0xfffffffffffffff0,%rcx
  401a27:	ff ff 
  401a29:	48 3b 61 10          	cmp    0x10(%rcx),%rsp
  401a2d:	77 07                	ja     401a36 <runtime.init.1+0x16>
  401a2f:	e8 1c b1 02 00       	callq  42cb50 <runtime.morestack_noctxt>
  401a34:	eb ea                	jmp    401a20 <runtime.init.1>
  401a36:	48 83 ec 28          	sub    $0x28,%rsp
  401a3a:	8b 1d 30 ca 06 00    	mov    0x6ca30(%rip),%ebx        # 46e470 <runtime.cpuid_ecx>
  401a40:	81 e3 00 00 00 02    	and    $0x2000000,%ebx
  401a46:	83 fb 00             	cmp    $0x0,%ebx
  401a49:	0f 84 e8 01 00 00    	je     401c37 <runtime.init.1+0x217>
  401a4f:	8b 1d 1b ca 06 00    	mov    0x6ca1b(%rip),%ebx        # 46e470 <runtime.cpuid_ecx>
  401a55:	81 e3 00 02 00 00    	and    $0x200,%ebx
  401a5b:	83 fb 00             	cmp    $0x0,%ebx
  401a5e:	0f 84 d3 01 00 00    	je     401c37 <runtime.init.1+0x217>
  401a64:	8b 1d 06 ca 06 00    	mov    0x6ca06(%rip),%ebx        # 46e470 <runtime.cpuid_ecx>
  401a6a:	81 e3 00 00 08 00    	and    $0x80000,%ebx
  401a70:	83 fb 00             	cmp    $0x0,%ebx
  401a73:	0f 84 be 01 00 00    	je     401c37 <runtime.init.1+0x217>
  401a79:	c6 05 e6 c9 06 00 01 	movb   $0x1,0x6c9e6(%rip)        # 46e466 <runtime.useAeshash>
  401a80:	48 8d 1d b9 5e 06 00 	lea    0x65eb9(%rip),%rbx        # 467940 <runtime.algarray>
  401a87:	48 89 1c 24          	mov    %rbx,(%rsp)
  401a8b:	48 8d 1d 0e 9c 04 00 	lea    0x49c0e(%rip),%rbx        # 44b6a0 <runtime.aeshash.f>
  401a92:	48 89 5c 24 08       	mov    %rbx,0x8(%rsp)
  401a97:	e8 d4 61 00 00       	callq  407c70 <runtime.writebarrierptr>
  401a9c:	48 8d 1d 9d 5e 06 00 	lea    0x65e9d(%rip),%rbx        # 467940 <runtime.algarray>
  401aa3:	48 83 c3 20          	add    $0x20,%rbx
  401aa7:	48 89 1c 24          	mov    %rbx,(%rsp)
  401aab:	48 8d 1d ee 9b 04 00 	lea    0x49bee(%rip),%rbx        # 44b6a0 <runtime.aeshash.f>
  401ab2:	48 89 5c 24 08       	mov    %rbx,0x8(%rsp)
  401ab7:	e8 b4 61 00 00       	callq  407c70 <runtime.writebarrierptr>
  401abc:	48 8d 1d 7d 5e 06 00 	lea    0x65e7d(%rip),%rbx        # 467940 <runtime.algarray>
  401ac3:	48 83 c3 30          	add    $0x30,%rbx
  401ac7:	48 89 1c 24          	mov    %rbx,(%rsp)
  401acb:	48 8d 1d ce 9b 04 00 	lea    0x49bce(%rip),%rbx        # 44b6a0 <runtime.aeshash.f>
  401ad2:	48 89 5c 24 08       	mov    %rbx,0x8(%rsp)
  401ad7:	e8 94 61 00 00       	callq  407c70 <runtime.writebarrierptr>
  401adc:	48 8d 1d 5d 5e 06 00 	lea    0x65e5d(%rip),%rbx        # 467940 <runtime.algarray>
  401ae3:	48 83 c3 40          	add    $0x40,%rbx
  401ae7:	48 89 1c 24          	mov    %rbx,(%rsp)
  401aeb:	48 8d 1d 96 9b 04 00 	lea    0x49b96(%rip),%rbx        # 44b688 <runtime.aeshash32.f>
  401af2:	48 89 5c 24 08       	mov    %rbx,0x8(%rsp)
  401af7:	e8 74 61 00 00       	callq  407c70 <runtime.writebarrierptr>
  401afc:	48 8d 1d 3d 5e 06 00 	lea    0x65e3d(%rip),%rbx        # 467940 <runtime.algarray>
  401b03:	48 83 c3 50          	add    $0x50,%rbx
  401b07:	48 89 1c 24          	mov    %rbx,(%rsp)
  401b0b:	48 8d 1d 7e 9b 04 00 	lea    0x49b7e(%rip),%rbx        # 44b690 <runtime.aeshash64.f>
  401b12:	48 89 5c 24 08       	mov    %rbx,0x8(%rsp)
  401b17:	e8 54 61 00 00       	callq  407c70 <runtime.writebarrierptr>
  401b1c:	48 8d 1d 1d 5e 06 00 	lea    0x65e1d(%rip),%rbx        # 467940 <runtime.algarray>
  401b23:	48 83 c3 60          	add    $0x60,%rbx
  401b27:	48 89 1c 24          	mov    %rbx,(%rsp)
  401b2b:	48 8d 1d 6e 9b 04 00 	lea    0x49b6e(%rip),%rbx        # 44b6a0 <runtime.aeshash.f>
  401b32:	48 89 5c 24 08       	mov    %rbx,0x8(%rsp)
  401b37:	e8 34 61 00 00       	callq  407c70 <runtime.writebarrierptr>
  401b3c:	48 8d 1d fd 5d 06 00 	lea    0x65dfd(%rip),%rbx        # 467940 <runtime.algarray>
  401b43:	48 81 c3 e0 00 00 00 	add    $0xe0,%rbx
  401b4a:	48 89 1c 24          	mov    %rbx,(%rsp)
  401b4e:	48 8d 1d 43 9b 04 00 	lea    0x49b43(%rip),%rbx        # 44b698 <runtime.aeshashstr.f>
  401b55:	48 89 5c 24 08       	mov    %rbx,0x8(%rsp)
  401b5a:	e8 11 61 00 00       	callq  407c70 <runtime.writebarrierptr>
  401b5f:	48 c7 44 24 20 00 00 	movq   $0x0,0x20(%rsp)
  401b66:	00 00 
  401b68:	c7 44 24 1c 00 00 00 	movl   $0x0,0x1c(%rsp)
  401b6f:	00 
  401b70:	48 8d 5c 24 20       	lea    0x20(%rsp),%rbx
  401b75:	48 89 1c 24          	mov    %rbx,(%rsp)
  401b79:	48 8d 5c 24 1c       	lea    0x1c(%rsp),%rbx
  401b7e:	48 89 5c 24 08       	mov    %rbx,0x8(%rsp)
  401b83:	e8 d8 ea 01 00       	callq  420660 <runtime.get_random_data>
  401b88:	8b 5c 24 1c          	mov    0x1c(%rsp),%ebx
  401b8c:	83 fb 20             	cmp    $0x20,%ebx
  401b8f:	7e 08                	jle    401b99 <runtime.init.1+0x179>
  401b91:	c7 44 24 1c 20 00 00 	movl   $0x20,0x1c(%rsp)
  401b98:	00 
  401b99:	48 8d 1d 00 cb 06 00 	lea    0x6cb00(%rip),%rbx        # 46e6a0 <runtime.aeskeysched>
  401ba0:	48 89 1c 24          	mov    %rbx,(%rsp)
  401ba4:	48 8b 5c 24 20       	mov    0x20(%rsp),%rbx
  401ba9:	48 89 5c 24 08       	mov    %rbx,0x8(%rsp)
  401bae:	48 63 5c 24 1c       	movslq 0x1c(%rsp),%rbx
  401bb3:	48 89 5c 24 10       	mov    %rbx,0x10(%rsp)
  401bb8:	e8 23 d2 02 00       	callq  42ede0 <runtime.memmove>
  401bbd:	8b 5c 24 1c          	mov    0x1c(%rsp),%ebx
  401bc1:	83 fb 20             	cmp    $0x20,%ebx
  401bc4:	7d 71                	jge    401c37 <runtime.init.1+0x217>
  401bc6:	e8 45 d7 02 00       	callq  42f310 <runtime.nanotime>
  401bcb:	48 8b 14 24          	mov    (%rsp),%rdx
  401bcf:	8b 5c 24 1c          	mov    0x1c(%rsp),%ebx
  401bd3:	83 fb 20             	cmp    $0x20,%ebx
  401bd6:	7d 5f                	jge    401c37 <runtime.init.1+0x217>
  401bd8:	8b 44 24 1c          	mov    0x1c(%rsp),%eax
  401bdc:	8b 5c 24 1c          	mov    0x1c(%rsp),%ebx
  401be0:	c1 f8 1f             	sar    $0x1f,%eax
  401be3:	83 e0 07             	and    $0x7,%eax
  401be6:	01 c3                	add    %eax,%ebx
  401be8:	83 e3 07             	and    $0x7,%ebx
  401beb:	29 c3                	sub    %eax,%ebx
  401bed:	89 d8                	mov    %ebx,%eax
  401bef:	48 8d 1d aa ca 06 00 	lea    0x6caaa(%rip),%rbx        # 46e6a0 <runtime.aeskeysched>
  401bf6:	8b 6c 24 1c          	mov    0x1c(%rsp),%ebp
  401bfa:	48 63 ed             	movslq %ebp,%rbp
  401bfd:	48 83 fd 20          	cmp    $0x20,%rbp
  401c01:	73 3f                	jae    401c42 <runtime.init.1+0x222>
  401c03:	48 8d 1c 2b          	lea    (%rbx,%rbp,1),%rbx
  401c07:	49 89 c8             	mov    %rcx,%r8
  401c0a:	89 c1                	mov    %eax,%ecx
  401c0c:	c1 e1 03             	shl    $0x3,%ecx
  401c0f:	48 63 c9             	movslq %ecx,%rcx
  401c12:	48 89 d5             	mov    %rdx,%rbp
  401c15:	48 83 f9 40          	cmp    $0x40,%rcx
  401c19:	73 21                	jae    401c3c <runtime.init.1+0x21c>
  401c1b:	48 d3 fd             	sar    %cl,%rbp
  401c1e:	4c 89 c1             	mov    %r8,%rcx
  401c21:	40 88 2b             	mov    %bpl,(%rbx)
  401c24:	8b 5c 24 1c          	mov    0x1c(%rsp),%ebx
  401c28:	ff c3                	inc    %ebx
  401c2a:	89 5c 24 1c          	mov    %ebx,0x1c(%rsp)
  401c2e:	8b 5c 24 1c          	mov    0x1c(%rsp),%ebx
  401c32:	83 fb 20             	cmp    $0x20,%ebx
  401c35:	7c a1                	jl     401bd8 <runtime.init.1+0x1b8>
  401c37:	48 83 c4 28          	add    $0x28,%rsp
  401c3b:	c3                   	retq   
  401c3c:	48 c1 fd 3f          	sar    $0x3f,%rbp
  401c40:	eb d9                	jmp    401c1b <runtime.init.1+0x1fb>
  401c42:	e8 69 77 00 00       	callq  4093b0 <runtime.panicindex>
  401c47:	0f 0b                	ud2    
  401c49:	00 00                	add    %al,(%rax)
  401c4b:	00 00                	add    %al,(%rax)
  401c4d:	00 00                	add    %al,(%rax)
	...

0000000000401c50 <runtime.cgocallbackg>:
  401c50:	48 83 ec 28          	sub    $0x28,%rsp
  401c54:	e8 a7 77 02 00       	callq  429400 <runtime.getg>
  401c59:	48 8b 04 24          	mov    (%rsp),%rax
  401c5d:	48 8b a8 b0 00 00 00 	mov    0xb0(%rax),%rbp
  401c64:	48 8b 5d 70          	mov    0x70(%rbp),%rbx
  401c68:	48 89 44 24 20       	mov    %rax,0x20(%rsp)
  401c6d:	48 39 c3             	cmp    %rax,%rbx
  401c70:	74 30                	je     401ca2 <runtime.cgocallbackg+0x52>
  401c72:	48 8d 1d 07 76 04 00 	lea    0x47607(%rip),%rbx        # 449280 <go.string.*+0x9198>
  401c79:	48 8d 2c 24          	lea    (%rsp),%rbp
  401c7d:	48 89 ef             	mov    %rbp,%rdi
  401c80:	48 89 de             	mov    %rbx,%rsi
  401c83:	48 a5                	movsq  %ds:(%rsi),%es:(%rdi)
  401c85:	48 a5                	movsq  %ds:(%rsi),%es:(%rdi)
  401c87:	e8 84 9d 00 00       	callq  40ba10 <runtime.printstring>
  401c8c:	e8 5f 8d 00 00       	callq  40a9f0 <runtime.printnl>
  401c91:	c7 04 24 02 00 00 00 	movl   $0x2,(%rsp)
  401c98:	e8 f3 d4 02 00       	callq  42f190 <runtime.exit>
  401c9d:	48 8b 44 24 20       	mov    0x20(%rsp),%rax
  401ca2:	48 8b 68 60          	mov    0x60(%rax),%rbp
  401ca6:	48 89 6c 24 18       	mov    %rbp,0x18(%rsp)
  401cab:	48 8b 68 68          	mov    0x68(%rax),%rbp
  401caf:	48 89 6c 24 10       	mov    %rbp,0x10(%rsp)
  401cb4:	e8 c7 37 02 00       	callq  425480 <runtime.exitsyscall>
  401cb9:	e8 22 00 00 00       	callq  401ce0 <runtime.cgocallbackg1>
  401cbe:	48 8b 5c 24 10       	mov    0x10(%rsp),%rbx
  401cc3:	48 89 1c 24          	mov    %rbx,(%rsp)
  401cc7:	48 8b 5c 24 18       	mov    0x18(%rsp),%rbx
  401ccc:	48 89 5c 24 08       	mov    %rbx,0x8(%rsp)
  401cd1:	e8 ba 31 02 00       	callq  424e90 <runtime.reentersyscall>
  401cd6:	48 83 c4 28          	add    $0x28,%rsp
  401cda:	c3                   	retq   
  401cdb:	00 00                	add    %al,(%rax)
  401cdd:	00 00                	add    %al,(%rax)
	...

0000000000401ce0 <runtime.cgocallbackg1>:
  401ce0:	64 48 8b 0c 25 f0 ff 	mov    %fs:0xfffffffffffffff0,%rcx
  401ce7:	ff ff 
  401ce9:	48 3b 61 10          	cmp    0x10(%rcx),%rsp
  401ced:	77 07                	ja     401cf6 <runtime.cgocallbackg1+0x16>
  401cef:	e8 5c ae 02 00       	callq  42cb50 <runtime.morestack_noctxt>
  401cf4:	eb ea                	jmp    401ce0 <runtime.cgocallbackg1>
  401cf6:	48 83 ec 58          	sub    $0x58,%rsp
  401cfa:	e8 01 77 02 00       	callq  429400 <runtime.getg>
  401cff:	48 8b 0c 24          	mov    (%rsp),%rcx
  401d03:	48 89 4c 24 38       	mov    %rcx,0x38(%rsp)
  401d08:	48 8b a9 b0 00 00 00 	mov    0xb0(%rcx),%rbp
  401d0f:	0f b6 9d d0 02 00 00 	movzbl 0x2d0(%rbp),%ebx
  401d16:	80 fb 00             	cmp    $0x0,%bl
  401d19:	74 20                	je     401d3b <runtime.cgocallbackg1+0x5b>
  401d1b:	48 8b 99 b0 00 00 00 	mov    0xb0(%rcx),%rbx
  401d22:	31 ed                	xor    %ebp,%ebp
  401d24:	40 88 ab d0 02 00 00 	mov    %bpl,0x2d0(%rbx)
  401d2b:	48 8d 1d 9e 9a 04 00 	lea    0x49a9e(%rip),%rbx        # 44b7d0 <runtime.newextram.f>
  401d32:	48 89 1c 24          	mov    %rbx,(%rsp)
  401d36:	e8 e5 ac 02 00       	callq  42ca20 <runtime.onM>
  401d3b:	c6 44 24 2f 01       	movb   $0x1,0x2f(%rsp)
  401d40:	48 8d 5c 24 2f       	lea    0x2f(%rsp),%rbx
  401d45:	48 89 1c 24          	mov    %rbx,(%rsp)
  401d49:	48 8d 0d 20 9b 04 00 	lea    0x49b20(%rip),%rcx        # 44b870 <runtime.unwindm.f>
  401d50:	51                   	push   %rcx
  401d51:	6a 08                	pushq  $0x8
  401d53:	e8 78 78 00 00       	callq  4095d0 <runtime.deferproc>
  401d58:	59                   	pop    %rcx
  401d59:	59                   	pop    %rcx
  401d5a:	48 85 c0             	test   %rax,%rax
  401d5d:	0f 85 73 01 00 00    	jne    401ed6 <runtime.cgocallbackg1+0x1f6>
  401d63:	48 c7 44 24 40 00 00 	movq   $0x0,0x40(%rsp)
  401d6a:	00 00 
  401d6c:	48 8b 5c 24 38       	mov    0x38(%rsp),%rbx
  401d71:	48 8b 9b b0 00 00 00 	mov    0xb0(%rbx),%rbx
  401d78:	48 8b 1b             	mov    (%rbx),%rbx
  401d7b:	48 8b 6b 30          	mov    0x30(%rbx),%rbp
  401d7f:	48 89 6c 24 30       	mov    %rbp,0x30(%rsp)
  401d84:	48 8d 1d a5 ee 03 00 	lea    0x3eea5(%rip),%rbx        # 440c30 <go.string.*+0xb48>
  401d8b:	48 8b 0b             	mov    (%rbx),%rcx
  401d8e:	48 89 4c 24 48       	mov    %rcx,0x48(%rsp)
  401d93:	48 8b 43 08          	mov    0x8(%rbx),%rax
  401d97:	48 83 f8 03          	cmp    $0x3,%rax
  401d9b:	75 7d                	jne    401e1a <runtime.cgocallbackg1+0x13a>
  401d9d:	48 89 0c 24          	mov    %rcx,(%rsp)
  401da1:	48 89 44 24 50       	mov    %rax,0x50(%rsp)
  401da6:	48 89 44 24 08       	mov    %rax,0x8(%rsp)
  401dab:	48 8d 2d 9e e7 03 00 	lea    0x3e79e(%rip),%rbp        # 440550 <go.string.*+0x468>
  401db2:	4c 8d 44 24 10       	lea    0x10(%rsp),%r8
  401db7:	4c 89 c7             	mov    %r8,%rdi
  401dba:	48 89 ee             	mov    %rbp,%rsi
  401dbd:	48 a5                	movsq  %ds:(%rsi),%es:(%rdi)
  401dbf:	48 a5                	movsq  %ds:(%rsi),%es:(%rdi)
  401dc1:	e8 ca c4 02 00       	callq  42e290 <runtime.eqstring>
  401dc6:	48 8b 4c 24 48       	mov    0x48(%rsp),%rcx
  401dcb:	48 8b 44 24 50       	mov    0x50(%rsp),%rax
  401dd0:	0f b6 5c 24 20       	movzbl 0x20(%rsp),%ebx
  401dd5:	80 fb 00             	cmp    $0x0,%bl
  401dd8:	74 40                	je     401e1a <runtime.cgocallbackg1+0x13a>
  401dda:	48 8b 4c 24 30       	mov    0x30(%rsp),%rcx
  401ddf:	48 83 c1 20          	add    $0x20,%rcx
  401de3:	48 8b 29             	mov    (%rcx),%rbp
  401de6:	48 89 2c 24          	mov    %rbp,(%rsp)
  401dea:	48 8b 69 08          	mov    0x8(%rcx),%rbp
  401dee:	48 89 6c 24 08       	mov    %rbp,0x8(%rsp)
  401df3:	48 8b 59 10          	mov    0x10(%rcx),%rbx
  401df7:	89 db                	mov    %ebx,%ebx
  401df9:	89 5c 24 10          	mov    %ebx,0x10(%rsp)
  401dfd:	c7 44 24 14 00 00 00 	movl   $0x0,0x14(%rsp)
  401e04:	00 
  401e05:	e8 56 ad 02 00       	callq  42cb60 <runtime.reflectcall>
  401e0a:	c6 44 24 2f 00       	movb   $0x0,0x2f(%rsp)
  401e0f:	90                   	nop
  401e10:	e8 cb 7e 00 00       	callq  409ce0 <runtime.deferreturn>
  401e15:	48 83 c4 58          	add    $0x58,%rsp
  401e19:	c3                   	retq   
  401e1a:	48 83 f8 05          	cmp    $0x5,%rax
  401e1e:	75 4b                	jne    401e6b <runtime.cgocallbackg1+0x18b>
  401e20:	48 89 0c 24          	mov    %rcx,(%rsp)
  401e24:	48 89 44 24 50       	mov    %rax,0x50(%rsp)
  401e29:	48 89 44 24 08       	mov    %rax,0x8(%rsp)
  401e2e:	48 8d 2d fb ed 03 00 	lea    0x3edfb(%rip),%rbp        # 440c30 <go.string.*+0xb48>
  401e35:	4c 8d 44 24 10       	lea    0x10(%rsp),%r8
  401e3a:	4c 89 c7             	mov    %r8,%rdi
  401e3d:	48 89 ee             	mov    %rbp,%rsi
  401e40:	48 a5                	movsq  %ds:(%rsi),%es:(%rdi)
  401e42:	48 a5                	movsq  %ds:(%rsi),%es:(%rdi)
  401e44:	e8 47 c4 02 00       	callq  42e290 <runtime.eqstring>
  401e49:	48 8b 4c 24 48       	mov    0x48(%rsp),%rcx
  401e4e:	48 8b 44 24 50       	mov    0x50(%rsp),%rax
  401e53:	0f b6 5c 24 20       	movzbl 0x20(%rsp),%ebx
  401e58:	80 fb 00             	cmp    $0x0,%bl
  401e5b:	74 0e                	je     401e6b <runtime.cgocallbackg1+0x18b>
  401e5d:	48 8b 4c 24 30       	mov    0x30(%rsp),%rcx
  401e62:	48 83 c1 10          	add    $0x10,%rcx
  401e66:	e9 78 ff ff ff       	jmpq   401de3 <runtime.cgocallbackg1+0x103>
  401e6b:	48 89 44 24 50       	mov    %rax,0x50(%rsp)
  401e70:	48 83 f8 03          	cmp    $0x3,%rax
  401e74:	75 3c                	jne    401eb2 <runtime.cgocallbackg1+0x1d2>
  401e76:	48 89 0c 24          	mov    %rcx,(%rsp)
  401e7a:	48 89 44 24 08       	mov    %rax,0x8(%rsp)
  401e7f:	48 8d 2d 8a ee 03 00 	lea    0x3ee8a(%rip),%rbp        # 440d10 <go.string.*+0xc28>
  401e86:	4c 8d 44 24 10       	lea    0x10(%rsp),%r8
  401e8b:	4c 89 c7             	mov    %r8,%rdi
  401e8e:	48 89 ee             	mov    %rbp,%rsi
  401e91:	48 a5                	movsq  %ds:(%rsi),%es:(%rdi)
  401e93:	48 a5                	movsq  %ds:(%rsi),%es:(%rdi)
  401e95:	e8 f6 c3 02 00       	callq  42e290 <runtime.eqstring>
  401e9a:	0f b6 5c 24 20       	movzbl 0x20(%rsp),%ebx
  401e9f:	80 fb 00             	cmp    $0x0,%bl
  401ea2:	74 0e                	je     401eb2 <runtime.cgocallbackg1+0x1d2>
  401ea4:	48 8b 4c 24 30       	mov    0x30(%rsp),%rcx
  401ea9:	48 83 c1 20          	add    $0x20,%rcx
  401ead:	e9 31 ff ff ff       	jmpq   401de3 <runtime.cgocallbackg1+0x103>
  401eb2:	48 8d 1d 87 77 04 00 	lea    0x47787(%rip),%rbx        # 449640 <go.string.*+0x9558>
  401eb9:	48 8d 2c 24          	lea    (%rsp),%rbp
  401ebd:	48 89 ef             	mov    %rbp,%rdi
  401ec0:	48 89 de             	mov    %rbx,%rsi
  401ec3:	48 a5                	movsq  %ds:(%rsi),%es:(%rdi)
  401ec5:	48 a5                	movsq  %ds:(%rsi),%es:(%rdi)
  401ec7:	e8 24 87 00 00       	callq  40a5f0 <runtime.gothrow>
  401ecc:	48 8b 4c 24 40       	mov    0x40(%rsp),%rcx
  401ed1:	e9 0d ff ff ff       	jmpq   401de3 <runtime.cgocallbackg1+0x103>
  401ed6:	90                   	nop
  401ed7:	e8 04 7e 00 00       	callq  409ce0 <runtime.deferreturn>
  401edc:	48 83 c4 58          	add    $0x58,%rsp
  401ee0:	c3                   	retq   
	...

0000000000401ef0 <runtime.unwindm>:
  401ef0:	64 48 8b 0c 25 f0 ff 	mov    %fs:0xfffffffffffffff0,%rcx
  401ef7:	ff ff 
  401ef9:	48 3b 61 10          	cmp    0x10(%rcx),%rsp
  401efd:	77 07                	ja     401f06 <runtime.unwindm+0x16>
  401eff:	e8 4c ac 02 00       	callq  42cb50 <runtime.morestack_noctxt>
  401f04:	eb ea                	jmp    401ef0 <runtime.unwindm>
  401f06:	48 83 ec 48          	sub    $0x48,%rsp
  401f0a:	48 8b 5c 24 50       	mov    0x50(%rsp),%rbx
  401f0f:	0f b6 1b             	movzbl (%rbx),%ebx
  401f12:	80 fb 00             	cmp    $0x0,%bl
  401f15:	75 05                	jne    401f1c <runtime.unwindm+0x2c>
  401f17:	48 83 c4 48          	add    $0x48,%rsp
  401f1b:	c3                   	retq   
  401f1c:	e8 ef 74 02 00       	callq  429410 <runtime.acquirem>
  401f21:	48 8b 04 24          	mov    (%rsp),%rax
  401f25:	48 89 44 24 30       	mov    %rax,0x30(%rsp)
  401f2a:	48 8b 00             	mov    (%rax),%rax
  401f2d:	48 83 f8 00          	cmp    $0x0,%rax
  401f31:	0f 84 4d 01 00 00    	je     402084 <runtime.unwindm+0x194>
  401f37:	48 83 c0 30          	add    $0x30,%rax
  401f3b:	48 89 44 24 28       	mov    %rax,0x28(%rsp)
  401f40:	48 8d 1d e9 ec 03 00 	lea    0x3ece9(%rip),%rbx        # 440c30 <go.string.*+0xb48>
  401f47:	48 8b 0b             	mov    (%rbx),%rcx
  401f4a:	48 89 4c 24 38       	mov    %rcx,0x38(%rsp)
  401f4f:	48 8b 43 08          	mov    0x8(%rbx),%rax
  401f53:	48 83 f8 03          	cmp    $0x3,%rax
  401f57:	75 6e                	jne    401fc7 <runtime.unwindm+0xd7>
  401f59:	48 89 0c 24          	mov    %rcx,(%rsp)
  401f5d:	48 89 44 24 40       	mov    %rax,0x40(%rsp)
  401f62:	48 89 44 24 08       	mov    %rax,0x8(%rsp)
  401f67:	48 8d 2d e2 e5 03 00 	lea    0x3e5e2(%rip),%rbp        # 440550 <go.string.*+0x468>
  401f6e:	4c 8d 44 24 10       	lea    0x10(%rsp),%r8
  401f73:	4c 89 c7             	mov    %r8,%rdi
  401f76:	48 89 ee             	mov    %rbp,%rsi
  401f79:	48 a5                	movsq  %ds:(%rsi),%es:(%rdi)
  401f7b:	48 a5                	movsq  %ds:(%rsi),%es:(%rdi)
  401f7d:	e8 0e c3 02 00       	callq  42e290 <runtime.eqstring>
  401f82:	48 8b 4c 24 38       	mov    0x38(%rsp),%rcx
  401f87:	48 8b 44 24 40       	mov    0x40(%rsp),%rax
  401f8c:	0f b6 5c 24 20       	movzbl 0x20(%rsp),%ebx
  401f91:	80 fb 00             	cmp    $0x0,%bl
  401f94:	74 31                	je     401fc7 <runtime.unwindm+0xd7>
  401f96:	48 8b 5c 24 28       	mov    0x28(%rsp),%rbx
  401f9b:	48 83 fb 00          	cmp    $0x0,%rbx
  401f9f:	74 22                	je     401fc3 <runtime.unwindm+0xd3>
  401fa1:	4c 8b 44 24 28       	mov    0x28(%rsp),%r8
  401fa6:	49 8b 28             	mov    (%r8),%rbp
  401fa9:	48 8b 6d 00          	mov    0x0(%rbp),%rbp
  401fad:	48 89 2b             	mov    %rbp,(%rbx)
  401fb0:	48 8b 5c 24 30       	mov    0x30(%rsp),%rbx
  401fb5:	48 89 1c 24          	mov    %rbx,(%rsp)
  401fb9:	e8 82 74 02 00       	callq  429440 <runtime.releasem>
  401fbe:	48 83 c4 48          	add    $0x48,%rsp
  401fc2:	c3                   	retq   
  401fc3:	89 03                	mov    %eax,(%rbx)
  401fc5:	eb da                	jmp    401fa1 <runtime.unwindm+0xb1>
  401fc7:	48 83 f8 05          	cmp    $0x5,%rax
  401fcb:	75 3d                	jne    40200a <runtime.unwindm+0x11a>
  401fcd:	48 89 0c 24          	mov    %rcx,(%rsp)
  401fd1:	48 89 44 24 40       	mov    %rax,0x40(%rsp)
  401fd6:	48 89 44 24 08       	mov    %rax,0x8(%rsp)
  401fdb:	48 8d 2d 4e ec 03 00 	lea    0x3ec4e(%rip),%rbp        # 440c30 <go.string.*+0xb48>
  401fe2:	4c 8d 44 24 10       	lea    0x10(%rsp),%r8
  401fe7:	4c 89 c7             	mov    %r8,%rdi
  401fea:	48 89 ee             	mov    %rbp,%rsi
  401fed:	48 a5                	movsq  %ds:(%rsi),%es:(%rdi)
  401fef:	48 a5                	movsq  %ds:(%rsi),%es:(%rdi)
  401ff1:	e8 9a c2 02 00       	callq  42e290 <runtime.eqstring>
  401ff6:	48 8b 4c 24 38       	mov    0x38(%rsp),%rcx
  401ffb:	48 8b 44 24 40       	mov    0x40(%rsp),%rax
  402000:	0f b6 5c 24 20       	movzbl 0x20(%rsp),%ebx
  402005:	80 fb 00             	cmp    $0x0,%bl
  402008:	75 8c                	jne    401f96 <runtime.unwindm+0xa6>
  40200a:	48 89 44 24 40       	mov    %rax,0x40(%rsp)
  40200f:	48 83 f8 03          	cmp    $0x3,%rax
  402013:	75 50                	jne    402065 <runtime.unwindm+0x175>
  402015:	48 89 0c 24          	mov    %rcx,(%rsp)
  402019:	48 89 44 24 08       	mov    %rax,0x8(%rsp)
  40201e:	48 8d 2d eb ec 03 00 	lea    0x3eceb(%rip),%rbp        # 440d10 <go.string.*+0xc28>
  402025:	4c 8d 44 24 10       	lea    0x10(%rsp),%r8
  40202a:	4c 89 c7             	mov    %r8,%rdi
  40202d:	48 89 ee             	mov    %rbp,%rsi
  402030:	48 a5                	movsq  %ds:(%rsi),%es:(%rdi)
  402032:	48 a5                	movsq  %ds:(%rsi),%es:(%rdi)
  402034:	e8 57 c2 02 00       	callq  42e290 <runtime.eqstring>
  402039:	48 8b 44 24 28       	mov    0x28(%rsp),%rax
  40203e:	0f b6 5c 24 20       	movzbl 0x20(%rsp),%ebx
  402043:	80 fb 00             	cmp    $0x0,%bl
  402046:	74 1d                	je     402065 <runtime.unwindm+0x175>
  402048:	48 83 f8 00          	cmp    $0x0,%rax
  40204c:	74 13                	je     402061 <runtime.unwindm+0x171>
  40204e:	48 8b 28             	mov    (%rax),%rbp
  402051:	48 83 c5 04          	add    $0x4,%rbp
  402055:	48 8b 6d 00          	mov    0x0(%rbp),%rbp
  402059:	48 89 28             	mov    %rbp,(%rax)
  40205c:	e9 4f ff ff ff       	jmpq   401fb0 <runtime.unwindm+0xc0>
  402061:	89 00                	mov    %eax,(%rax)
  402063:	eb e9                	jmp    40204e <runtime.unwindm+0x15e>
  402065:	48 8d 1d 94 67 04 00 	lea    0x46794(%rip),%rbx        # 448800 <go.string.*+0x8718>
  40206c:	48 8d 2c 24          	lea    (%rsp),%rbp
  402070:	48 89 ef             	mov    %rbp,%rdi
  402073:	48 89 de             	mov    %rbx,%rsi
  402076:	48 a5                	movsq  %ds:(%rsi),%es:(%rdi)
  402078:	48 a5                	movsq  %ds:(%rsi),%es:(%rdi)
  40207a:	e8 71 85 00 00       	callq  40a5f0 <runtime.gothrow>
  40207f:	e9 2c ff ff ff       	jmpq   401fb0 <runtime.unwindm+0xc0>
  402084:	89 00                	mov    %eax,(%rax)
  402086:	e9 ac fe ff ff       	jmpq   401f37 <runtime.unwindm+0x47>
  40208b:	00 00                	add    %al,(%rax)
  40208d:	00 00                	add    %al,(%rax)
	...

0000000000402090 <runtime.chanbuf>:
  402090:	48 8b 44 24 08       	mov    0x8(%rsp),%rax
  402095:	48 8b 48 10          	mov    0x10(%rax),%rcx
  402099:	48 8b 5c 24 10       	mov    0x10(%rsp),%rbx
  40209e:	48 0f b7 68 18       	movzwq 0x18(%rax),%rbp
  4020a3:	48 0f af dd          	imul   %rbp,%rbx
  4020a7:	48 89 d8             	mov    %rbx,%rax
  4020aa:	48 89 cb             	mov    %rcx,%rbx
  4020ad:	48 01 c3             	add    %rax,%rbx
  4020b0:	48 89 5c 24 18       	mov    %rbx,0x18(%rsp)
  4020b5:	c3                   	retq   
	...

00000000004020c0 <runtime.chansend>:
  4020c0:	64 48 8b 0c 25 f0 ff 	mov    %fs:0xfffffffffffffff0,%rcx
  4020c7:	ff ff 
  4020c9:	48 8d 44 24 e0       	lea    -0x20(%rsp),%rax
  4020ce:	48 3b 41 10          	cmp    0x10(%rcx),%rax
  4020d2:	77 07                	ja     4020db <runtime.chansend+0x1b>
  4020d4:	e8 77 aa 02 00       	callq  42cb50 <runtime.morestack_noctxt>
  4020d9:	eb e5                	jmp    4020c0 <runtime.chansend>
  4020db:	48 81 ec a0 00 00 00 	sub    $0xa0,%rsp
  4020e2:	48 8b 84 24 b0 00 00 	mov    0xb0(%rsp),%rax
  4020e9:	00 
  4020ea:	31 ed                	xor    %ebp,%ebp
  4020ec:	48 39 e8             	cmp    %rbp,%rax
  4020ef:	75 68                	jne    402159 <runtime.chansend+0x99>
  4020f1:	80 bc 24 c0 00 00 00 	cmpb   $0x0,0xc0(%rsp)
  4020f8:	00 
  4020f9:	75 10                	jne    40210b <runtime.chansend+0x4b>
  4020fb:	c6 84 24 d0 00 00 00 	movb   $0x0,0xd0(%rsp)
  402102:	00 
  402103:	48 81 c4 a0 00 00 00 	add    $0xa0,%rsp
  40210a:	c3                   	retq   
  40210b:	48 c7 04 24 00 00 00 	movq   $0x0,(%rsp)
  402112:	00 
  402113:	48 c7 44 24 08 00 00 	movq   $0x0,0x8(%rsp)
  40211a:	00 00 
  40211c:	48 8d 1d 9d 53 04 00 	lea    0x4539d(%rip),%rbx        # 4474c0 <go.string.*+0x73d8>
  402123:	48 8d 6c 24 10       	lea    0x10(%rsp),%rbp
  402128:	48 89 ef             	mov    %rbp,%rdi
  40212b:	48 89 de             	mov    %rbx,%rsi
  40212e:	48 a5                	movsq  %ds:(%rsi),%es:(%rdi)
  402130:	48 a5                	movsq  %ds:(%rsi),%es:(%rdi)
  402132:	e8 b9 9d 00 00       	callq  40bef0 <runtime.gopark>
  402137:	48 8d 1d 02 3c 04 00 	lea    0x43c02(%rip),%rbx        # 445d40 <go.string.*+0x5c58>
  40213e:	48 8d 2c 24          	lea    (%rsp),%rbp
  402142:	48 89 ef             	mov    %rbp,%rdi
  402145:	48 89 de             	mov    %rbx,%rsi
  402148:	48 a5                	movsq  %ds:(%rsi),%es:(%rdi)
  40214a:	48 a5                	movsq  %ds:(%rsi),%es:(%rdi)
  40214c:	e8 9f 84 00 00       	callq  40a5f0 <runtime.gothrow>
  402151:	48 8b 84 24 b0 00 00 	mov    0xb0(%rsp),%rax
  402158:	00 
  402159:	80 bc 24 c0 00 00 00 	cmpb   $0x0,0xc0(%rsp)
  402160:	00 
  402161:	75 43                	jne    4021a6 <runtime.chansend+0xe6>
  402163:	8b 58 1c             	mov    0x1c(%rax),%ebx
  402166:	83 fb 00             	cmp    $0x0,%ebx
  402169:	75 3b                	jne    4021a6 <runtime.chansend+0xe6>
  40216b:	48 8b 58 08          	mov    0x8(%rax),%rbx
  40216f:	48 83 fb 00          	cmp    $0x0,%rbx
  402173:	75 1b                	jne    402190 <runtime.chansend+0xd0>
  402175:	48 8b 58 38          	mov    0x38(%rax),%rbx
  402179:	31 ed                	xor    %ebp,%ebp
  40217b:	48 39 eb             	cmp    %rbp,%rbx
  40217e:	75 10                	jne    402190 <runtime.chansend+0xd0>
  402180:	c6 84 24 d0 00 00 00 	movb   $0x0,0xd0(%rsp)
  402187:	00 
  402188:	48 81 c4 a0 00 00 00 	add    $0xa0,%rsp
  40218f:	c3                   	retq   
  402190:	48 8b 58 08          	mov    0x8(%rax),%rbx
  402194:	48 83 fb 00          	cmp    $0x0,%rbx
  402198:	76 0c                	jbe    4021a6 <runtime.chansend+0xe6>
  40219a:	48 8b 18             	mov    (%rax),%rbx
  40219d:	48 8b 68 08          	mov    0x8(%rax),%rbp
  4021a1:	48 39 eb             	cmp    %rbp,%rbx
  4021a4:	74 da                	je     402180 <runtime.chansend+0xc0>
  4021a6:	48 c7 44 24 28 00 00 	movq   $0x0,0x28(%rsp)
  4021ad:	00 00 
  4021af:	48 8b 1d 5a c3 06 00 	mov    0x6c35a(%rip),%rbx        # 46e510 <runtime.blockprofilerate>
  4021b6:	48 83 fb 00          	cmp    $0x0,%rbx
  4021ba:	76 16                	jbe    4021d2 <runtime.chansend+0x112>
  4021bc:	e8 3f bf 02 00       	callq  42e100 <runtime.cputicks>
  4021c1:	48 8b 84 24 b0 00 00 	mov    0xb0(%rsp),%rax
  4021c8:	00 
  4021c9:	48 8b 1c 24          	mov    (%rsp),%rbx
  4021cd:	48 89 5c 24 28       	mov    %rbx,0x28(%rsp)
  4021d2:	48 89 04 24          	mov    %rax,(%rsp)
  4021d6:	48 83 3c 24 00       	cmpq   $0x0,(%rsp)
  4021db:	0f 84 73 09 00 00    	je     402b54 <runtime.chansend+0xa94>
  4021e1:	48 83 04 24 58       	addq   $0x58,(%rsp)
  4021e6:	e8 45 3d 00 00       	callq  405f30 <runtime.lock>
  4021eb:	48 8b 84 24 b0 00 00 	mov    0xb0(%rsp),%rax
  4021f2:	00 
  4021f3:	8b 58 1c             	mov    0x1c(%rax),%ebx
  4021f6:	83 fb 00             	cmp    $0x0,%ebx
  4021f9:	74 73                	je     40226e <runtime.chansend+0x1ae>
  4021fb:	48 89 04 24          	mov    %rax,(%rsp)
  4021ff:	48 83 3c 24 00       	cmpq   $0x0,(%rsp)
  402204:	74 5f                	je     402265 <runtime.chansend+0x1a5>
  402206:	48 83 04 24 58       	addq   $0x58,(%rsp)
  40220b:	e8 30 3f 00 00       	callq  406140 <runtime.unlock>
  402210:	48 8d 1d a9 64 04 00 	lea    0x464a9(%rip),%rbx        # 4486c0 <go.string.*+0x85d8>
  402217:	48 8b 2b             	mov    (%rbx),%rbp
  40221a:	48 89 ac 24 90 00 00 	mov    %rbp,0x90(%rsp)
  402221:	00 
  402222:	48 8b 6b 08          	mov    0x8(%rbx),%rbp
  402226:	48 89 ac 24 98 00 00 	mov    %rbp,0x98(%rsp)
  40222d:	00 
  40222e:	48 8d 1d ab 35 03 00 	lea    0x335ab(%rip),%rbx        # 4357e0 <runtime.rodata+0x57e0>
  402235:	48 89 1c 24          	mov    %rbx,(%rsp)
  402239:	48 8d 9c 24 90 00 00 	lea    0x90(%rsp),%rbx
  402240:	00 
  402241:	48 89 5c 24 08       	mov    %rbx,0x8(%rsp)
  402246:	e8 35 37 00 00       	callq  405980 <runtime.convT2E>
  40224b:	48 8d 5c 24 10       	lea    0x10(%rsp),%rbx
  402250:	48 8d 2c 24          	lea    (%rsp),%rbp
  402254:	48 89 ef             	mov    %rbp,%rdi
  402257:	48 89 de             	mov    %rbx,%rsi
  40225a:	48 a5                	movsq  %ds:(%rsi),%es:(%rdi)
  40225c:	48 a5                	movsq  %ds:(%rsi),%es:(%rdi)
  40225e:	e8 5d 7c 00 00       	callq  409ec0 <runtime.gopanic>
  402263:	0f 0b                	ud2    
  402265:	89 04 25 00 00 00 00 	mov    %eax,0x0
  40226c:	eb 98                	jmp    402206 <runtime.chansend+0x146>
  40226e:	48 8b 58 08          	mov    0x8(%rax),%rbx
  402272:	48 83 fb 00          	cmp    $0x0,%rbx
  402276:	0f 85 a2 04 00 00    	jne    40271e <runtime.chansend+0x65e>
  40227c:	48 89 04 24          	mov    %rax,(%rsp)
  402280:	48 83 3c 24 00       	cmpq   $0x0,(%rsp)
  402285:	0f 84 87 04 00 00    	je     402712 <runtime.chansend+0x652>
  40228b:	48 83 04 24 38       	addq   $0x38,(%rsp)
  402290:	e8 5b 15 00 00       	callq  4037f0 <runtime.(*waitq).dequeue>
  402295:	48 8b 8c 24 b0 00 00 	mov    0xb0(%rsp),%rcx
  40229c:	00 
  40229d:	48 8b 44 24 08       	mov    0x8(%rsp),%rax
  4022a2:	48 89 44 24 48       	mov    %rax,0x48(%rsp)
  4022a7:	31 ed                	xor    %ebp,%ebp
  4022a9:	48 39 e8             	cmp    %rbp,%rax
  4022ac:	0f 84 db 00 00 00    	je     40238d <runtime.chansend+0x2cd>
  4022b2:	48 89 0c 24          	mov    %rcx,(%rsp)
  4022b6:	48 83 3c 24 00       	cmpq   $0x0,(%rsp)
  4022bb:	0f 84 c0 00 00 00    	je     402381 <runtime.chansend+0x2c1>
  4022c1:	48 83 04 24 58       	addq   $0x58,(%rsp)
  4022c6:	e8 75 3e 00 00       	callq  406140 <runtime.unlock>
  4022cb:	48 8b 44 24 48       	mov    0x48(%rsp),%rax
  4022d0:	48 8b 28             	mov    (%rax),%rbp
  4022d3:	48 89 6c 24 58       	mov    %rbp,0x58(%rsp)
  4022d8:	48 8b 58 20          	mov    0x20(%rax),%rbx
  4022dc:	31 ed                	xor    %ebp,%ebp
  4022de:	48 39 eb             	cmp    %rbp,%rbx
  4022e1:	74 37                	je     40231a <runtime.chansend+0x25a>
  4022e3:	48 8b 68 20          	mov    0x20(%rax),%rbp
  4022e7:	48 89 2c 24          	mov    %rbp,(%rsp)
  4022eb:	48 8b 9c 24 b8 00 00 	mov    0xb8(%rsp),%rbx
  4022f2:	00 
  4022f3:	48 89 5c 24 08       	mov    %rbx,0x8(%rsp)
  4022f8:	48 8b 9c 24 b0 00 00 	mov    0xb0(%rsp),%rbx
  4022ff:	00 
  402300:	48 0f b7 6b 18       	movzwq 0x18(%rbx),%rbp
  402305:	48 89 6c 24 10       	mov    %rbp,0x10(%rsp)
  40230a:	e8 d1 ca 02 00       	callq  42ede0 <runtime.memmove>
  40230f:	48 8b 44 24 48       	mov    0x48(%rsp),%rax
  402314:	31 ed                	xor    %ebp,%ebp
  402316:	48 89 68 20          	mov    %rbp,0x20(%rax)
  40231a:	48 8b 5c 24 58       	mov    0x58(%rsp),%rbx
  40231f:	48 89 1c 24          	mov    %rbx,(%rsp)
  402323:	48 83 3c 24 00       	cmpq   $0x0,(%rsp)
  402328:	74 4e                	je     402378 <runtime.chansend+0x2b8>
  40232a:	48 83 04 24 70       	addq   $0x70,(%rsp)
  40232f:	48 89 44 24 08       	mov    %rax,0x8(%rsp)
  402334:	e8 37 59 00 00       	callq  407c70 <runtime.writebarrierptr>
  402339:	48 8b 6c 24 48       	mov    0x48(%rsp),%rbp
  40233e:	48 8b 5d 28          	mov    0x28(%rbp),%rbx
  402342:	48 83 fb 00          	cmp    $0x0,%rbx
  402346:	74 12                	je     40235a <runtime.chansend+0x29a>
  402348:	e8 b3 bd 02 00       	callq  42e100 <runtime.cputicks>
  40234d:	48 8b 04 24          	mov    (%rsp),%rax
  402351:	48 8b 5c 24 48       	mov    0x48(%rsp),%rbx
  402356:	48 89 43 28          	mov    %rax,0x28(%rbx)
  40235a:	48 8b 5c 24 58       	mov    0x58(%rsp),%rbx
  40235f:	48 89 1c 24          	mov    %rbx,(%rsp)
  402363:	e8 08 9d 00 00       	callq  40c070 <runtime.goready>
  402368:	c6 84 24 d0 00 00 00 	movb   $0x1,0xd0(%rsp)
  40236f:	01 
  402370:	48 81 c4 a0 00 00 00 	add    $0xa0,%rsp
  402377:	c3                   	retq   
  402378:	89 04 25 00 00 00 00 	mov    %eax,0x0
  40237f:	eb a9                	jmp    40232a <runtime.chansend+0x26a>
  402381:	89 04 25 00 00 00 00 	mov    %eax,0x0
  402388:	e9 34 ff ff ff       	jmpq   4022c1 <runtime.chansend+0x201>
  40238d:	80 bc 24 c0 00 00 00 	cmpb   $0x0,0xc0(%rsp)
  402394:	00 
  402395:	75 2e                	jne    4023c5 <runtime.chansend+0x305>
  402397:	48 89 0c 24          	mov    %rcx,(%rsp)
  40239b:	48 83 3c 24 00       	cmpq   $0x0,(%rsp)
  4023a0:	74 1a                	je     4023bc <runtime.chansend+0x2fc>
  4023a2:	48 83 04 24 58       	addq   $0x58,(%rsp)
  4023a7:	e8 94 3d 00 00       	callq  406140 <runtime.unlock>
  4023ac:	c6 84 24 d0 00 00 00 	movb   $0x0,0xd0(%rsp)
  4023b3:	00 
  4023b4:	48 81 c4 a0 00 00 00 	add    $0xa0,%rsp
  4023bb:	c3                   	retq   
  4023bc:	89 04 25 00 00 00 00 	mov    %eax,0x0
  4023c3:	eb dd                	jmp    4023a2 <runtime.chansend+0x2e2>
  4023c5:	e8 36 70 02 00       	callq  429400 <runtime.getg>
  4023ca:	48 8b 1c 24          	mov    (%rsp),%rbx
  4023ce:	48 89 9c 24 80 00 00 	mov    %rbx,0x80(%rsp)
  4023d5:	00 
  4023d6:	e8 05 9d 00 00       	callq  40c0e0 <runtime.acquireSudog>
  4023db:	48 8b 04 24          	mov    (%rsp),%rax
  4023df:	48 c7 40 28 00 00 00 	movq   $0x0,0x28(%rax)
  4023e6:	00 
  4023e7:	48 8b 5c 24 28       	mov    0x28(%rsp),%rbx
  4023ec:	48 83 fb 00          	cmp    $0x0,%rbx
  4023f0:	74 08                	je     4023fa <runtime.chansend+0x33a>
  4023f2:	48 c7 40 28 ff ff ff 	movq   $0xffffffffffffffff,0x28(%rax)
  4023f9:	ff 
  4023fa:	48 89 44 24 70       	mov    %rax,0x70(%rsp)
  4023ff:	48 89 04 24          	mov    %rax,(%rsp)
  402403:	48 83 3c 24 00       	cmpq   $0x0,(%rsp)
  402408:	0f 84 f8 02 00 00    	je     402706 <runtime.chansend+0x646>
  40240e:	48 83 04 24 20       	addq   $0x20,(%rsp)
  402413:	48 8b 9c 24 b8 00 00 	mov    0xb8(%rsp),%rbx
  40241a:	00 
  40241b:	48 89 5c 24 08       	mov    %rbx,0x8(%rsp)
  402420:	e8 4b 58 00 00       	callq  407c70 <runtime.writebarrierptr>
  402425:	48 8b 44 24 70       	mov    0x70(%rsp),%rax
  40242a:	31 ed                	xor    %ebp,%ebp
  40242c:	48 89 68 38          	mov    %rbp,0x38(%rax)
  402430:	48 8b 9c 24 80 00 00 	mov    0x80(%rsp),%rbx
  402437:	00 
  402438:	48 89 1c 24          	mov    %rbx,(%rsp)
  40243c:	48 83 3c 24 00       	cmpq   $0x0,(%rsp)
  402441:	0f 84 b3 02 00 00    	je     4026fa <runtime.chansend+0x63a>
  402447:	48 81 04 24 08 01 00 	addq   $0x108,(%rsp)
  40244e:	00 
  40244f:	48 89 44 24 08       	mov    %rax,0x8(%rsp)
  402454:	e8 17 58 00 00       	callq  407c70 <runtime.writebarrierptr>
  402459:	48 8b 5c 24 70       	mov    0x70(%rsp),%rbx
  40245e:	48 89 1c 24          	mov    %rbx,(%rsp)
  402462:	48 83 3c 24 00       	cmpq   $0x0,(%rsp)
  402467:	0f 84 81 02 00 00    	je     4026ee <runtime.chansend+0x62e>
  40246d:	48 8b 9c 24 80 00 00 	mov    0x80(%rsp),%rbx
  402474:	00 
  402475:	48 89 5c 24 08       	mov    %rbx,0x8(%rsp)
  40247a:	e8 f1 57 00 00       	callq  407c70 <runtime.writebarrierptr>
  40247f:	48 8b 4c 24 70       	mov    0x70(%rsp),%rcx
  402484:	31 ed                	xor    %ebp,%ebp
  402486:	48 89 69 08          	mov    %rbp,0x8(%rcx)
  40248a:	48 8b 9c 24 80 00 00 	mov    0x80(%rsp),%rbx
  402491:	00 
  402492:	31 ed                	xor    %ebp,%ebp
  402494:	48 89 6b 70          	mov    %rbp,0x70(%rbx)
  402498:	48 8b 84 24 b0 00 00 	mov    0xb0(%rsp),%rax
  40249f:	00 
  4024a0:	48 83 f8 00          	cmp    $0x0,%rax
  4024a4:	0f 84 3d 02 00 00    	je     4026e7 <runtime.chansend+0x627>
  4024aa:	48 83 c0 48          	add    $0x48,%rax
  4024ae:	31 ed                	xor    %ebp,%ebp
  4024b0:	48 89 69 10          	mov    %rbp,0x10(%rcx)
  4024b4:	48 8b 18             	mov    (%rax),%rbx
  4024b7:	31 ed                	xor    %ebp,%ebp
  4024b9:	48 39 eb             	cmp    %rbp,%rbx
  4024bc:	0f 85 c2 01 00 00    	jne    402684 <runtime.chansend+0x5c4>
  4024c2:	48 89 44 24 60       	mov    %rax,0x60(%rsp)
  4024c7:	48 89 04 24          	mov    %rax,(%rsp)
  4024cb:	48 83 3c 24 00       	cmpq   $0x0,(%rsp)
  4024d0:	0f 84 a2 01 00 00    	je     402678 <runtime.chansend+0x5b8>
  4024d6:	48 89 4c 24 30       	mov    %rcx,0x30(%rsp)
  4024db:	48 89 4c 24 08       	mov    %rcx,0x8(%rsp)
  4024e0:	e8 8b 57 00 00       	callq  407c70 <runtime.writebarrierptr>
  4024e5:	48 8b 5c 24 60       	mov    0x60(%rsp),%rbx
  4024ea:	48 89 1c 24          	mov    %rbx,(%rsp)
  4024ee:	48 83 3c 24 00       	cmpq   $0x0,(%rsp)
  4024f3:	0f 84 73 01 00 00    	je     40266c <runtime.chansend+0x5ac>
  4024f9:	48 83 04 24 08       	addq   $0x8,(%rsp)
  4024fe:	48 8b 5c 24 30       	mov    0x30(%rsp),%rbx
  402503:	48 89 5c 24 08       	mov    %rbx,0x8(%rsp)
  402508:	e8 63 57 00 00       	callq  407c70 <runtime.writebarrierptr>
  40250d:	48 8b b4 24 b0 00 00 	mov    0xb0(%rsp),%rsi
  402514:	00 
  402515:	48 89 34 24          	mov    %rsi,(%rsp)
  402519:	48 83 3c 24 00       	cmpq   $0x0,(%rsp)
  40251e:	0f 84 3c 01 00 00    	je     402660 <runtime.chansend+0x5a0>
  402524:	48 83 04 24 58       	addq   $0x58,(%rsp)
  402529:	48 8d 35 90 1c 04 00 	lea    0x41c90(%rip),%rsi        # 4441c0 <go.string.*+0x40d8>
  402530:	48 8d 6c 24 08       	lea    0x8(%rsp),%rbp
  402535:	48 89 ef             	mov    %rbp,%rdi
  402538:	48 a5                	movsq  %ds:(%rsi),%es:(%rdi)
  40253a:	48 a5                	movsq  %ds:(%rsi),%es:(%rdi)
  40253c:	e8 df 9a 00 00       	callq  40c020 <runtime.goparkunlock>
  402541:	48 8b 4c 24 70       	mov    0x70(%rsp),%rcx
  402546:	48 8b 84 24 80 00 00 	mov    0x80(%rsp),%rax
  40254d:	00 
  40254e:	48 8b 98 08 01 00 00 	mov    0x108(%rax),%rbx
  402555:	48 39 cb             	cmp    %rcx,%rbx
  402558:	74 27                	je     402581 <runtime.chansend+0x4c1>
  40255a:	48 8d 1d 1f 64 04 00 	lea    0x4641f(%rip),%rbx        # 448980 <go.string.*+0x8898>
  402561:	48 8d 2c 24          	lea    (%rsp),%rbp
  402565:	48 89 ef             	mov    %rbp,%rdi
  402568:	48 89 de             	mov    %rbx,%rsi
  40256b:	48 a5                	movsq  %ds:(%rsi),%es:(%rdi)
  40256d:	48 a5                	movsq  %ds:(%rsi),%es:(%rdi)
  40256f:	e8 7c 80 00 00       	callq  40a5f0 <runtime.gothrow>
  402574:	48 8b 4c 24 70       	mov    0x70(%rsp),%rcx
  402579:	48 8b 84 24 80 00 00 	mov    0x80(%rsp),%rax
  402580:	00 
  402581:	31 ed                	xor    %ebp,%ebp
  402583:	48 89 a8 08 01 00 00 	mov    %rbp,0x108(%rax)
  40258a:	48 8b 58 70          	mov    0x70(%rax),%rbx
  40258e:	31 ed                	xor    %ebp,%ebp
  402590:	48 39 eb             	cmp    %rbp,%rbx
  402593:	75 7f                	jne    402614 <runtime.chansend+0x554>
  402595:	48 8b ac 24 b0 00 00 	mov    0xb0(%rsp),%rbp
  40259c:	00 
  40259d:	8b 5d 1c             	mov    0x1c(%rbp),%ebx
  4025a0:	83 fb 00             	cmp    $0x0,%ebx
  4025a3:	75 1a                	jne    4025bf <runtime.chansend+0x4ff>
  4025a5:	48 8d 1d d4 65 04 00 	lea    0x465d4(%rip),%rbx        # 448b80 <go.string.*+0x8a98>
  4025ac:	48 8d 2c 24          	lea    (%rsp),%rbp
  4025b0:	48 89 ef             	mov    %rbp,%rdi
  4025b3:	48 89 de             	mov    %rbx,%rsi
  4025b6:	48 a5                	movsq  %ds:(%rsi),%es:(%rdi)
  4025b8:	48 a5                	movsq  %ds:(%rsi),%es:(%rdi)
  4025ba:	e8 31 80 00 00       	callq  40a5f0 <runtime.gothrow>
  4025bf:	48 8d 1d fa 60 04 00 	lea    0x460fa(%rip),%rbx        # 4486c0 <go.string.*+0x85d8>
  4025c6:	48 8b 2b             	mov    (%rbx),%rbp
  4025c9:	48 89 ac 24 90 00 00 	mov    %rbp,0x90(%rsp)
  4025d0:	00 
  4025d1:	48 8b 6b 08          	mov    0x8(%rbx),%rbp
  4025d5:	48 89 ac 24 98 00 00 	mov    %rbp,0x98(%rsp)
  4025dc:	00 
  4025dd:	48 8d 1d fc 31 03 00 	lea    0x331fc(%rip),%rbx        # 4357e0 <runtime.rodata+0x57e0>
  4025e4:	48 89 1c 24          	mov    %rbx,(%rsp)
  4025e8:	48 8d 9c 24 90 00 00 	lea    0x90(%rsp),%rbx
  4025ef:	00 
  4025f0:	48 89 5c 24 08       	mov    %rbx,0x8(%rsp)
  4025f5:	e8 86 33 00 00       	callq  405980 <runtime.convT2E>
  4025fa:	48 8d 5c 24 10       	lea    0x10(%rsp),%rbx
  4025ff:	48 8d 2c 24          	lea    (%rsp),%rbp
  402603:	48 89 ef             	mov    %rbp,%rdi
  402606:	48 89 de             	mov    %rbx,%rsi
  402609:	48 a5                	movsq  %ds:(%rsi),%es:(%rdi)
  40260b:	48 a5                	movsq  %ds:(%rsi),%es:(%rdi)
  40260d:	e8 ae 78 00 00       	callq  409ec0 <runtime.gopanic>
  402612:	0f 0b                	ud2    
  402614:	31 ed                	xor    %ebp,%ebp
  402616:	48 89 68 70          	mov    %rbp,0x70(%rax)
  40261a:	48 8b 59 28          	mov    0x28(%rcx),%rbx
  40261e:	48 83 fb 00          	cmp    $0x0,%rbx
  402622:	7e 23                	jle    402647 <runtime.chansend+0x587>
  402624:	48 8b 59 28          	mov    0x28(%rcx),%rbx
  402628:	48 8b 6c 24 28       	mov    0x28(%rsp),%rbp
  40262d:	48 29 eb             	sub    %rbp,%rbx
  402630:	48 89 1c 24          	mov    %rbx,(%rsp)
  402634:	48 c7 44 24 08 02 00 	movq   $0x2,0x8(%rsp)
  40263b:	00 00 
  40263d:	e8 9e 61 00 00       	callq  4087e0 <runtime.blockevent>
  402642:	48 8b 4c 24 70       	mov    0x70(%rsp),%rcx
  402647:	48 89 0c 24          	mov    %rcx,(%rsp)
  40264b:	e8 70 9b 00 00       	callq  40c1c0 <runtime.releaseSudog>
  402650:	c6 84 24 d0 00 00 00 	movb   $0x1,0xd0(%rsp)
  402657:	01 
  402658:	48 81 c4 a0 00 00 00 	add    $0xa0,%rsp
  40265f:	c3                   	retq   
  402660:	89 04 25 00 00 00 00 	mov    %eax,0x0
  402667:	e9 b8 fe ff ff       	jmpq   402524 <runtime.chansend+0x464>
  40266c:	89 04 25 00 00 00 00 	mov    %eax,0x0
  402673:	e9 81 fe ff ff       	jmpq   4024f9 <runtime.chansend+0x439>
  402678:	89 04 25 00 00 00 00 	mov    %eax,0x0
  40267f:	e9 52 fe ff ff       	jmpq   4024d6 <runtime.chansend+0x416>
  402684:	48 89 44 24 60       	mov    %rax,0x60(%rsp)
  402689:	48 8b 68 08          	mov    0x8(%rax),%rbp
  40268d:	48 89 2c 24          	mov    %rbp,(%rsp)
  402691:	48 83 3c 24 00       	cmpq   $0x0,(%rsp)
  402696:	74 46                	je     4026de <runtime.chansend+0x61e>
  402698:	48 83 04 24 10       	addq   $0x10,(%rsp)
  40269d:	48 89 4c 24 30       	mov    %rcx,0x30(%rsp)
  4026a2:	48 89 4c 24 08       	mov    %rcx,0x8(%rsp)
  4026a7:	e8 c4 55 00 00       	callq  407c70 <runtime.writebarrierptr>
  4026ac:	48 8b 5c 24 60       	mov    0x60(%rsp),%rbx
  4026b1:	48 89 1c 24          	mov    %rbx,(%rsp)
  4026b5:	48 83 3c 24 00       	cmpq   $0x0,(%rsp)
  4026ba:	74 19                	je     4026d5 <runtime.chansend+0x615>
  4026bc:	48 83 04 24 08       	addq   $0x8,(%rsp)
  4026c1:	48 8b 5c 24 30       	mov    0x30(%rsp),%rbx
  4026c6:	48 89 5c 24 08       	mov    %rbx,0x8(%rsp)
  4026cb:	e8 a0 55 00 00       	callq  407c70 <runtime.writebarrierptr>
  4026d0:	e9 38 fe ff ff       	jmpq   40250d <runtime.chansend+0x44d>
  4026d5:	89 04 25 00 00 00 00 	mov    %eax,0x0
  4026dc:	eb de                	jmp    4026bc <runtime.chansend+0x5fc>
  4026de:	89 04 25 00 00 00 00 	mov    %eax,0x0
  4026e5:	eb b1                	jmp    402698 <runtime.chansend+0x5d8>
  4026e7:	89 00                	mov    %eax,(%rax)
  4026e9:	e9 bc fd ff ff       	jmpq   4024aa <runtime.chansend+0x3ea>
  4026ee:	89 04 25 00 00 00 00 	mov    %eax,0x0
  4026f5:	e9 73 fd ff ff       	jmpq   40246d <runtime.chansend+0x3ad>
  4026fa:	89 04 25 00 00 00 00 	mov    %eax,0x0
  402701:	e9 41 fd ff ff       	jmpq   402447 <runtime.chansend+0x387>
  402706:	89 04 25 00 00 00 00 	mov    %eax,0x0
  40270d:	e9 fc fc ff ff       	jmpq   40240e <runtime.chansend+0x34e>
  402712:	89 04 25 00 00 00 00 	mov    %eax,0x0
  402719:	e9 6d fb ff ff       	jmpq   40228b <runtime.chansend+0x1cb>
  40271e:	48 c7 44 24 20 00 00 	movq   $0x0,0x20(%rsp)
  402725:	00 00 
  402727:	48 8b 18             	mov    (%rax),%rbx
  40272a:	48 8b 68 08          	mov    0x8(%rax),%rbp
  40272e:	48 39 eb             	cmp    %rbp,%rbx
  402731:	0f 82 bc 02 00 00    	jb     4029f3 <runtime.chansend+0x933>
  402737:	80 bc 24 c0 00 00 00 	cmpb   $0x0,0xc0(%rsp)
  40273e:	00 
  40273f:	75 2e                	jne    40276f <runtime.chansend+0x6af>
  402741:	48 89 04 24          	mov    %rax,(%rsp)
  402745:	48 83 3c 24 00       	cmpq   $0x0,(%rsp)
  40274a:	74 1a                	je     402766 <runtime.chansend+0x6a6>
  40274c:	48 83 04 24 58       	addq   $0x58,(%rsp)
  402751:	e8 ea 39 00 00       	callq  406140 <runtime.unlock>
  402756:	c6 84 24 d0 00 00 00 	movb   $0x0,0xd0(%rsp)
  40275d:	00 
  40275e:	48 81 c4 a0 00 00 00 	add    $0xa0,%rsp
  402765:	c3                   	retq   
  402766:	89 04 25 00 00 00 00 	mov    %eax,0x0
  40276d:	eb dd                	jmp    40274c <runtime.chansend+0x68c>
  40276f:	e8 8c 6c 02 00       	callq  429400 <runtime.getg>
  402774:	48 8b 1c 24          	mov    (%rsp),%rbx
  402778:	48 89 9c 24 88 00 00 	mov    %rbx,0x88(%rsp)
  40277f:	00 
  402780:	e8 5b 99 00 00       	callq  40c0e0 <runtime.acquireSudog>
  402785:	48 8b 04 24          	mov    (%rsp),%rax
  402789:	48 c7 40 28 00 00 00 	movq   $0x0,0x28(%rax)
  402790:	00 
  402791:	48 8b 5c 24 28       	mov    0x28(%rsp),%rbx
  402796:	48 83 fb 00          	cmp    $0x0,%rbx
  40279a:	74 08                	je     4027a4 <runtime.chansend+0x6e4>
  40279c:	48 c7 40 28 ff ff ff 	movq   $0xffffffffffffffff,0x28(%rax)
  4027a3:	ff 
  4027a4:	48 89 44 24 78       	mov    %rax,0x78(%rsp)
  4027a9:	48 89 04 24          	mov    %rax,(%rsp)
  4027ad:	48 83 3c 24 00       	cmpq   $0x0,(%rsp)
  4027b2:	0f 84 2f 02 00 00    	je     4029e7 <runtime.chansend+0x927>
  4027b8:	48 8b 9c 24 88 00 00 	mov    0x88(%rsp),%rbx
  4027bf:	00 
  4027c0:	48 89 5c 24 08       	mov    %rbx,0x8(%rsp)
  4027c5:	e8 a6 54 00 00       	callq  407c70 <runtime.writebarrierptr>
  4027ca:	48 8b 4c 24 78       	mov    0x78(%rsp),%rcx
  4027cf:	31 ed                	xor    %ebp,%ebp
  4027d1:	48 89 69 20          	mov    %rbp,0x20(%rcx)
  4027d5:	31 ed                	xor    %ebp,%ebp
  4027d7:	48 89 69 08          	mov    %rbp,0x8(%rcx)
  4027db:	48 8b 84 24 b0 00 00 	mov    0xb0(%rsp),%rax
  4027e2:	00 
  4027e3:	48 83 f8 00          	cmp    $0x0,%rax
  4027e7:	0f 84 f3 01 00 00    	je     4029e0 <runtime.chansend+0x920>
  4027ed:	48 83 c0 48          	add    $0x48,%rax
  4027f1:	31 ed                	xor    %ebp,%ebp
  4027f3:	48 89 69 10          	mov    %rbp,0x10(%rcx)
  4027f7:	48 8b 18             	mov    (%rax),%rbx
  4027fa:	31 ed                	xor    %ebp,%ebp
  4027fc:	48 39 eb             	cmp    %rbp,%rbx
  4027ff:	0f 85 78 01 00 00    	jne    40297d <runtime.chansend+0x8bd>
  402805:	48 89 44 24 68       	mov    %rax,0x68(%rsp)
  40280a:	48 89 04 24          	mov    %rax,(%rsp)
  40280e:	48 83 3c 24 00       	cmpq   $0x0,(%rsp)
  402813:	0f 84 58 01 00 00    	je     402971 <runtime.chansend+0x8b1>
  402819:	48 89 4c 24 38       	mov    %rcx,0x38(%rsp)
  40281e:	48 89 4c 24 08       	mov    %rcx,0x8(%rsp)
  402823:	e8 48 54 00 00       	callq  407c70 <runtime.writebarrierptr>
  402828:	48 8b 5c 24 68       	mov    0x68(%rsp),%rbx
  40282d:	48 89 1c 24          	mov    %rbx,(%rsp)
  402831:	48 83 3c 24 00       	cmpq   $0x0,(%rsp)
  402836:	0f 84 29 01 00 00    	je     402965 <runtime.chansend+0x8a5>
  40283c:	48 83 04 24 08       	addq   $0x8,(%rsp)
  402841:	48 8b 5c 24 38       	mov    0x38(%rsp),%rbx
  402846:	48 89 5c 24 08       	mov    %rbx,0x8(%rsp)
  40284b:	e8 20 54 00 00       	callq  407c70 <runtime.writebarrierptr>
  402850:	48 8b b4 24 b0 00 00 	mov    0xb0(%rsp),%rsi
  402857:	00 
  402858:	48 89 34 24          	mov    %rsi,(%rsp)
  40285c:	48 83 3c 24 00       	cmpq   $0x0,(%rsp)
  402861:	0f 84 f2 00 00 00    	je     402959 <runtime.chansend+0x899>
  402867:	48 83 04 24 58       	addq   $0x58,(%rsp)
  40286c:	48 8d 35 4d 19 04 00 	lea    0x4194d(%rip),%rsi        # 4441c0 <go.string.*+0x40d8>
  402873:	48 8d 6c 24 08       	lea    0x8(%rsp),%rbp
  402878:	48 89 ef             	mov    %rbp,%rdi
  40287b:	48 a5                	movsq  %ds:(%rsi),%es:(%rdi)
  40287d:	48 a5                	movsq  %ds:(%rsi),%es:(%rdi)
  40287f:	e8 9c 97 00 00       	callq  40c020 <runtime.goparkunlock>
  402884:	48 8b 44 24 78       	mov    0x78(%rsp),%rax
  402889:	48 8b 58 28          	mov    0x28(%rax),%rbx
  40288d:	48 83 fb 00          	cmp    $0x0,%rbx
  402891:	7e 09                	jle    40289c <runtime.chansend+0x7dc>
  402893:	48 8b 68 28          	mov    0x28(%rax),%rbp
  402897:	48 89 6c 24 20       	mov    %rbp,0x20(%rsp)
  40289c:	48 89 04 24          	mov    %rax,(%rsp)
  4028a0:	e8 1b 99 00 00       	callq  40c1c0 <runtime.releaseSudog>
  4028a5:	48 8b 9c 24 b0 00 00 	mov    0xb0(%rsp),%rbx
  4028ac:	00 
  4028ad:	48 89 1c 24          	mov    %rbx,(%rsp)
  4028b1:	48 83 3c 24 00       	cmpq   $0x0,(%rsp)
  4028b6:	0f 84 91 00 00 00    	je     40294d <runtime.chansend+0x88d>
  4028bc:	48 83 04 24 58       	addq   $0x58,(%rsp)
  4028c1:	e8 6a 36 00 00       	callq  405f30 <runtime.lock>
  4028c6:	48 8b 84 24 b0 00 00 	mov    0xb0(%rsp),%rax
  4028cd:	00 
  4028ce:	8b 58 1c             	mov    0x1c(%rax),%ebx
  4028d1:	83 fb 00             	cmp    $0x0,%ebx
  4028d4:	0f 84 4d fe ff ff    	je     402727 <runtime.chansend+0x667>
  4028da:	48 89 04 24          	mov    %rax,(%rsp)
  4028de:	48 83 3c 24 00       	cmpq   $0x0,(%rsp)
  4028e3:	74 5f                	je     402944 <runtime.chansend+0x884>
  4028e5:	48 83 04 24 58       	addq   $0x58,(%rsp)
  4028ea:	e8 51 38 00 00       	callq  406140 <runtime.unlock>
  4028ef:	48 8d 1d ca 5d 04 00 	lea    0x45dca(%rip),%rbx        # 4486c0 <go.string.*+0x85d8>
  4028f6:	48 8b 2b             	mov    (%rbx),%rbp
  4028f9:	48 89 ac 24 90 00 00 	mov    %rbp,0x90(%rsp)
  402900:	00 
  402901:	48 8b 6b 08          	mov    0x8(%rbx),%rbp
  402905:	48 89 ac 24 98 00 00 	mov    %rbp,0x98(%rsp)
  40290c:	00 
  40290d:	48 8d 1d cc 2e 03 00 	lea    0x32ecc(%rip),%rbx        # 4357e0 <runtime.rodata+0x57e0>
  402914:	48 89 1c 24          	mov    %rbx,(%rsp)
  402918:	48 8d 9c 24 90 00 00 	lea    0x90(%rsp),%rbx
  40291f:	00 
  402920:	48 89 5c 24 08       	mov    %rbx,0x8(%rsp)
  402925:	e8 56 30 00 00       	callq  405980 <runtime.convT2E>
  40292a:	48 8d 5c 24 10       	lea    0x10(%rsp),%rbx
  40292f:	48 8d 2c 24          	lea    (%rsp),%rbp
  402933:	48 89 ef             	mov    %rbp,%rdi
  402936:	48 89 de             	mov    %rbx,%rsi
  402939:	48 a5                	movsq  %ds:(%rsi),%es:(%rdi)
  40293b:	48 a5                	movsq  %ds:(%rsi),%es:(%rdi)
  40293d:	e8 7e 75 00 00       	callq  409ec0 <runtime.gopanic>
  402942:	0f 0b                	ud2    
  402944:	89 04 25 00 00 00 00 	mov    %eax,0x0
  40294b:	eb 98                	jmp    4028e5 <runtime.chansend+0x825>
  40294d:	89 04 25 00 00 00 00 	mov    %eax,0x0
  402954:	e9 63 ff ff ff       	jmpq   4028bc <runtime.chansend+0x7fc>
  402959:	89 04 25 00 00 00 00 	mov    %eax,0x0
  402960:	e9 02 ff ff ff       	jmpq   402867 <runtime.chansend+0x7a7>
  402965:	89 04 25 00 00 00 00 	mov    %eax,0x0
  40296c:	e9 cb fe ff ff       	jmpq   40283c <runtime.chansend+0x77c>
  402971:	89 04 25 00 00 00 00 	mov    %eax,0x0
  402978:	e9 9c fe ff ff       	jmpq   402819 <runtime.chansend+0x759>
  40297d:	48 89 44 24 68       	mov    %rax,0x68(%rsp)
  402982:	48 8b 68 08          	mov    0x8(%rax),%rbp
  402986:	48 89 2c 24          	mov    %rbp,(%rsp)
  40298a:	48 83 3c 24 00       	cmpq   $0x0,(%rsp)
  40298f:	74 46                	je     4029d7 <runtime.chansend+0x917>
  402991:	48 83 04 24 10       	addq   $0x10,(%rsp)
  402996:	48 89 4c 24 38       	mov    %rcx,0x38(%rsp)
  40299b:	48 89 4c 24 08       	mov    %rcx,0x8(%rsp)
  4029a0:	e8 cb 52 00 00       	callq  407c70 <runtime.writebarrierptr>
  4029a5:	48 8b 5c 24 68       	mov    0x68(%rsp),%rbx
  4029aa:	48 89 1c 24          	mov    %rbx,(%rsp)
  4029ae:	48 83 3c 24 00       	cmpq   $0x0,(%rsp)
  4029b3:	74 19                	je     4029ce <runtime.chansend+0x90e>
  4029b5:	48 83 04 24 08       	addq   $0x8,(%rsp)
  4029ba:	48 8b 5c 24 38       	mov    0x38(%rsp),%rbx
  4029bf:	48 89 5c 24 08       	mov    %rbx,0x8(%rsp)
  4029c4:	e8 a7 52 00 00       	callq  407c70 <runtime.writebarrierptr>
  4029c9:	e9 82 fe ff ff       	jmpq   402850 <runtime.chansend+0x790>
  4029ce:	89 04 25 00 00 00 00 	mov    %eax,0x0
  4029d5:	eb de                	jmp    4029b5 <runtime.chansend+0x8f5>
  4029d7:	89 04 25 00 00 00 00 	mov    %eax,0x0
  4029de:	eb b1                	jmp    402991 <runtime.chansend+0x8d1>
  4029e0:	89 00                	mov    %eax,(%rax)
  4029e2:	e9 06 fe ff ff       	jmpq   4027ed <runtime.chansend+0x72d>
  4029e7:	89 04 25 00 00 00 00 	mov    %eax,0x0
  4029ee:	e9 c5 fd ff ff       	jmpq   4027b8 <runtime.chansend+0x6f8>
  4029f3:	48 89 04 24          	mov    %rax,(%rsp)
  4029f7:	48 8b 68 28          	mov    0x28(%rax),%rbp
  4029fb:	48 89 6c 24 08       	mov    %rbp,0x8(%rsp)
  402a00:	e8 8b f6 ff ff       	callq  402090 <runtime.chanbuf>
  402a05:	48 8b 5c 24 10       	mov    0x10(%rsp),%rbx
  402a0a:	48 89 1c 24          	mov    %rbx,(%rsp)
  402a0e:	48 8b 9c 24 b8 00 00 	mov    0xb8(%rsp),%rbx
  402a15:	00 
  402a16:	48 89 5c 24 08       	mov    %rbx,0x8(%rsp)
  402a1b:	48 8b 9c 24 b0 00 00 	mov    0xb0(%rsp),%rbx
  402a22:	00 
  402a23:	48 0f b7 6b 18       	movzwq 0x18(%rbx),%rbp
  402a28:	48 89 6c 24 10       	mov    %rbp,0x10(%rsp)
  402a2d:	e8 ae c3 02 00       	callq  42ede0 <runtime.memmove>
  402a32:	48 8b 84 24 b0 00 00 	mov    0xb0(%rsp),%rax
  402a39:	00 
  402a3a:	48 8b 68 28          	mov    0x28(%rax),%rbp
  402a3e:	48 ff c5             	inc    %rbp
  402a41:	48 89 68 28          	mov    %rbp,0x28(%rax)
  402a45:	48 8b 58 28          	mov    0x28(%rax),%rbx
  402a49:	48 8b 68 08          	mov    0x8(%rax),%rbp
  402a4d:	48 39 eb             	cmp    %rbp,%rbx
  402a50:	75 08                	jne    402a5a <runtime.chansend+0x99a>
  402a52:	48 c7 40 28 00 00 00 	movq   $0x0,0x28(%rax)
  402a59:	00 
  402a5a:	48 8b 28             	mov    (%rax),%rbp
  402a5d:	48 ff c5             	inc    %rbp
  402a60:	48 89 28             	mov    %rbp,(%rax)
  402a63:	48 89 04 24          	mov    %rax,(%rsp)
  402a67:	48 83 3c 24 00       	cmpq   $0x0,(%rsp)
  402a6c:	0f 84 d6 00 00 00    	je     402b48 <runtime.chansend+0xa88>
  402a72:	48 83 04 24 38       	addq   $0x38,(%rsp)
  402a77:	e8 74 0d 00 00       	callq  4037f0 <runtime.(*waitq).dequeue>
  402a7c:	48 8b 8c 24 b0 00 00 	mov    0xb0(%rsp),%rcx
  402a83:	00 
  402a84:	48 8b 44 24 08       	mov    0x8(%rsp),%rax
  402a89:	31 ed                	xor    %ebp,%ebp
  402a8b:	48 39 e8             	cmp    %rbp,%rax
  402a8e:	0f 84 94 00 00 00    	je     402b28 <runtime.chansend+0xa68>
  402a94:	48 89 44 24 40       	mov    %rax,0x40(%rsp)
  402a99:	48 8b 28             	mov    (%rax),%rbp
  402a9c:	48 89 6c 24 50       	mov    %rbp,0x50(%rsp)
  402aa1:	48 89 0c 24          	mov    %rcx,(%rsp)
  402aa5:	48 83 3c 24 00       	cmpq   $0x0,(%rsp)
  402aaa:	74 73                	je     402b1f <runtime.chansend+0xa5f>
  402aac:	48 83 04 24 58       	addq   $0x58,(%rsp)
  402ab1:	e8 8a 36 00 00       	callq  406140 <runtime.unlock>
  402ab6:	48 8b 6c 24 40       	mov    0x40(%rsp),%rbp
  402abb:	48 8b 5d 28          	mov    0x28(%rbp),%rbx
  402abf:	48 83 fb 00          	cmp    $0x0,%rbx
  402ac3:	74 12                	je     402ad7 <runtime.chansend+0xa17>
  402ac5:	e8 36 b6 02 00       	callq  42e100 <runtime.cputicks>
  402aca:	48 8b 04 24          	mov    (%rsp),%rax
  402ace:	48 8b 5c 24 40       	mov    0x40(%rsp),%rbx
  402ad3:	48 89 43 28          	mov    %rax,0x28(%rbx)
  402ad7:	48 8b 5c 24 50       	mov    0x50(%rsp),%rbx
  402adc:	48 89 1c 24          	mov    %rbx,(%rsp)
  402ae0:	e8 8b 95 00 00       	callq  40c070 <runtime.goready>
  402ae5:	48 8b 5c 24 20       	mov    0x20(%rsp),%rbx
  402aea:	48 83 fb 00          	cmp    $0x0,%rbx
  402aee:	7e 1f                	jle    402b0f <runtime.chansend+0xa4f>
  402af0:	48 8b 5c 24 20       	mov    0x20(%rsp),%rbx
  402af5:	48 8b 6c 24 28       	mov    0x28(%rsp),%rbp
  402afa:	48 29 eb             	sub    %rbp,%rbx
  402afd:	48 89 1c 24          	mov    %rbx,(%rsp)
  402b01:	48 c7 44 24 08 02 00 	movq   $0x2,0x8(%rsp)
  402b08:	00 00 
  402b0a:	e8 d1 5c 00 00       	callq  4087e0 <runtime.blockevent>
  402b0f:	c6 84 24 d0 00 00 00 	movb   $0x1,0xd0(%rsp)
  402b16:	01 
  402b17:	48 81 c4 a0 00 00 00 	add    $0xa0,%rsp
  402b1e:	c3                   	retq   
  402b1f:	89 04 25 00 00 00 00 	mov    %eax,0x0
  402b26:	eb 84                	jmp    402aac <runtime.chansend+0x9ec>
  402b28:	48 89 0c 24          	mov    %rcx,(%rsp)
  402b2c:	48 83 3c 24 00       	cmpq   $0x0,(%rsp)
  402b31:	74 0c                	je     402b3f <runtime.chansend+0xa7f>
  402b33:	48 83 04 24 58       	addq   $0x58,(%rsp)
  402b38:	e8 03 36 00 00       	callq  406140 <runtime.unlock>
  402b3d:	eb a6                	jmp    402ae5 <runtime.chansend+0xa25>
  402b3f:	89 04 25 00 00 00 00 	mov    %eax,0x0
  402b46:	eb eb                	jmp    402b33 <runtime.chansend+0xa73>
  402b48:	89 04 25 00 00 00 00 	mov    %eax,0x0
  402b4f:	e9 1e ff ff ff       	jmpq   402a72 <runtime.chansend+0x9b2>
  402b54:	89 04 25 00 00 00 00 	mov    %eax,0x0
  402b5b:	e9 81 f6 ff ff       	jmpq   4021e1 <runtime.chansend+0x121>

0000000000402b60 <runtime.chanrecv>:
  402b60:	64 48 8b 0c 25 f0 ff 	mov    %fs:0xfffffffffffffff0,%rcx
  402b67:	ff ff 
  402b69:	48 8d 44 24 e8       	lea    -0x18(%rsp),%rax
  402b6e:	48 3b 41 10          	cmp    0x10(%rcx),%rax
  402b72:	77 07                	ja     402b7b <runtime.chanrecv+0x1b>
  402b74:	e8 d7 9f 02 00       	callq  42cb50 <runtime.morestack_noctxt>
  402b79:	eb e5                	jmp    402b60 <runtime.chanrecv>
  402b7b:	48 81 ec 98 00 00 00 	sub    $0x98,%rsp
  402b82:	48 8b 8c 24 a8 00 00 	mov    0xa8(%rsp),%rcx
  402b89:	00 
  402b8a:	c6 84 24 c1 00 00 00 	movb   $0x0,0xc1(%rsp)
  402b91:	00 
  402b92:	c6 84 24 c0 00 00 00 	movb   $0x0,0xc0(%rsp)
  402b99:	00 
  402b9a:	31 ed                	xor    %ebp,%ebp
  402b9c:	48 39 e9             	cmp    %rbp,%rcx
  402b9f:	75 60                	jne    402c01 <runtime.chanrecv+0xa1>
  402ba1:	80 bc 24 b8 00 00 00 	cmpb   $0x0,0xb8(%rsp)
  402ba8:	00 
  402ba9:	75 08                	jne    402bb3 <runtime.chanrecv+0x53>
  402bab:	48 81 c4 98 00 00 00 	add    $0x98,%rsp
  402bb2:	c3                   	retq   
  402bb3:	48 c7 04 24 00 00 00 	movq   $0x0,(%rsp)
  402bba:	00 
  402bbb:	48 c7 44 24 08 00 00 	movq   $0x0,0x8(%rsp)
  402bc2:	00 00 
  402bc4:	48 8d 1d b5 48 04 00 	lea    0x448b5(%rip),%rbx        # 447480 <go.string.*+0x7398>
  402bcb:	48 8d 6c 24 10       	lea    0x10(%rsp),%rbp
  402bd0:	48 89 ef             	mov    %rbp,%rdi
  402bd3:	48 89 de             	mov    %rbx,%rsi
  402bd6:	48 a5                	movsq  %ds:(%rsi),%es:(%rdi)
  402bd8:	48 a5                	movsq  %ds:(%rsi),%es:(%rdi)
  402bda:	e8 11 93 00 00       	callq  40bef0 <runtime.gopark>
  402bdf:	48 8d 1d 5a 31 04 00 	lea    0x4315a(%rip),%rbx        # 445d40 <go.string.*+0x5c58>
  402be6:	48 8d 2c 24          	lea    (%rsp),%rbp
  402bea:	48 89 ef             	mov    %rbp,%rdi
  402bed:	48 89 de             	mov    %rbx,%rsi
  402bf0:	48 a5                	movsq  %ds:(%rsi),%es:(%rdi)
  402bf2:	48 a5                	movsq  %ds:(%rsi),%es:(%rdi)
  402bf4:	e8 f7 79 00 00       	callq  40a5f0 <runtime.gothrow>
  402bf9:	48 8b 8c 24 a8 00 00 	mov    0xa8(%rsp),%rcx
  402c00:	00 
  402c01:	80 bc 24 b8 00 00 00 	cmpb   $0x0,0xb8(%rsp)
  402c08:	00 
  402c09:	75 4f                	jne    402c5a <runtime.chanrecv+0xfa>
  402c0b:	48 8b 59 08          	mov    0x8(%rcx),%rbx
  402c0f:	48 83 fb 00          	cmp    $0x0,%rbx
  402c13:	0f 85 43 0a 00 00    	jne    40365c <runtime.chanrecv+0xafc>
  402c19:	48 8b 59 48          	mov    0x48(%rcx),%rbx
  402c1d:	31 ed                	xor    %ebp,%ebp
  402c1f:	48 39 eb             	cmp    %rbp,%rbx
  402c22:	0f 85 34 0a 00 00    	jne    40365c <runtime.chanrecv+0xafc>
  402c28:	48 89 0c 24          	mov    %rcx,(%rsp)
  402c2c:	48 83 3c 24 00       	cmpq   $0x0,(%rsp)
  402c31:	0f 84 19 0a 00 00    	je     403650 <runtime.chanrecv+0xaf0>
  402c37:	48 83 04 24 1c       	addq   $0x1c,(%rsp)
  402c3c:	e8 ff 49 01 00       	callq  417640 <runtime.atomicload>
  402c41:	48 8b 8c 24 a8 00 00 	mov    0xa8(%rsp),%rcx
  402c48:	00 
  402c49:	8b 5c 24 08          	mov    0x8(%rsp),%ebx
  402c4d:	83 fb 00             	cmp    $0x0,%ebx
  402c50:	75 08                	jne    402c5a <runtime.chanrecv+0xfa>
  402c52:	48 81 c4 98 00 00 00 	add    $0x98,%rsp
  402c59:	c3                   	retq   
  402c5a:	48 c7 44 24 30 00 00 	movq   $0x0,0x30(%rsp)
  402c61:	00 00 
  402c63:	48 8b 1d a6 b8 06 00 	mov    0x6b8a6(%rip),%rbx        # 46e510 <runtime.blockprofilerate>
  402c6a:	48 83 fb 00          	cmp    $0x0,%rbx
  402c6e:	76 16                	jbe    402c86 <runtime.chanrecv+0x126>
  402c70:	e8 8b b4 02 00       	callq  42e100 <runtime.cputicks>
  402c75:	48 8b 8c 24 a8 00 00 	mov    0xa8(%rsp),%rcx
  402c7c:	00 
  402c7d:	48 8b 1c 24          	mov    (%rsp),%rbx
  402c81:	48 89 5c 24 30       	mov    %rbx,0x30(%rsp)
  402c86:	48 89 0c 24          	mov    %rcx,(%rsp)
  402c8a:	48 83 3c 24 00       	cmpq   $0x0,(%rsp)
  402c8f:	0f 84 af 09 00 00    	je     403644 <runtime.chanrecv+0xae4>
  402c95:	48 83 04 24 58       	addq   $0x58,(%rsp)
  402c9a:	e8 91 32 00 00       	callq  405f30 <runtime.lock>
  402c9f:	48 8b 84 24 a8 00 00 	mov    0xa8(%rsp),%rax
  402ca6:	00 
  402ca7:	48 8b 58 08          	mov    0x8(%rax),%rbx
  402cab:	48 83 fb 00          	cmp    $0x0,%rbx
  402caf:	0f 85 16 05 00 00    	jne    4031cb <runtime.chanrecv+0x66b>
  402cb5:	8b 58 1c             	mov    0x1c(%rax),%ebx
  402cb8:	83 fb 00             	cmp    $0x0,%ebx
  402cbb:	74 39                	je     402cf6 <runtime.chanrecv+0x196>
  402cbd:	48 89 04 24          	mov    %rax,(%rsp)
  402cc1:	48 8b 9c 24 b0 00 00 	mov    0xb0(%rsp),%rbx
  402cc8:	00 
  402cc9:	48 89 5c 24 08       	mov    %rbx,0x8(%rsp)
  402cce:	e8 cd 09 00 00       	callq  4036a0 <runtime.recvclosed>
  402cd3:	0f b6 5c 24 10       	movzbl 0x10(%rsp),%ebx
  402cd8:	48 89 d9             	mov    %rbx,%rcx
  402cdb:	0f b6 5c 24 11       	movzbl 0x11(%rsp),%ebx
  402ce0:	88 8c 24 c0 00 00 00 	mov    %cl,0xc0(%rsp)
  402ce7:	88 9c 24 c1 00 00 00 	mov    %bl,0xc1(%rsp)
  402cee:	48 81 c4 98 00 00 00 	add    $0x98,%rsp
  402cf5:	c3                   	retq   
  402cf6:	48 89 04 24          	mov    %rax,(%rsp)
  402cfa:	48 83 3c 24 00       	cmpq   $0x0,(%rsp)
  402cff:	0f 84 ba 04 00 00    	je     4031bf <runtime.chanrecv+0x65f>
  402d05:	48 83 04 24 48       	addq   $0x48,(%rsp)
  402d0a:	e8 e1 0a 00 00       	callq  4037f0 <runtime.(*waitq).dequeue>
  402d0f:	48 8b 8c 24 a8 00 00 	mov    0xa8(%rsp),%rcx
  402d16:	00 
  402d17:	48 8b 44 24 08       	mov    0x8(%rsp),%rax
  402d1c:	48 89 44 24 50       	mov    %rax,0x50(%rsp)
  402d21:	31 ed                	xor    %ebp,%ebp
  402d23:	48 39 e8             	cmp    %rbp,%rax
  402d26:	0f 84 da 00 00 00    	je     402e06 <runtime.chanrecv+0x2a6>
  402d2c:	48 89 0c 24          	mov    %rcx,(%rsp)
  402d30:	48 83 3c 24 00       	cmpq   $0x0,(%rsp)
  402d35:	0f 84 bf 00 00 00    	je     402dfa <runtime.chanrecv+0x29a>
  402d3b:	48 83 04 24 58       	addq   $0x58,(%rsp)
  402d40:	e8 fb 33 00 00       	callq  406140 <runtime.unlock>
  402d45:	48 8b 8c 24 b0 00 00 	mov    0xb0(%rsp),%rcx
  402d4c:	00 
  402d4d:	48 8b 44 24 50       	mov    0x50(%rsp),%rax
  402d52:	31 ed                	xor    %ebp,%ebp
  402d54:	48 39 e9             	cmp    %rbp,%rcx
  402d57:	74 29                	je     402d82 <runtime.chanrecv+0x222>
  402d59:	48 89 0c 24          	mov    %rcx,(%rsp)
  402d5d:	48 8b 68 20          	mov    0x20(%rax),%rbp
  402d61:	48 89 6c 24 08       	mov    %rbp,0x8(%rsp)
  402d66:	48 8b 9c 24 a8 00 00 	mov    0xa8(%rsp),%rbx
  402d6d:	00 
  402d6e:	48 0f b7 6b 18       	movzwq 0x18(%rbx),%rbp
  402d73:	48 89 6c 24 10       	mov    %rbp,0x10(%rsp)
  402d78:	e8 63 c0 02 00       	callq  42ede0 <runtime.memmove>
  402d7d:	48 8b 44 24 50       	mov    0x50(%rsp),%rax
  402d82:	31 ed                	xor    %ebp,%ebp
  402d84:	48 89 68 20          	mov    %rbp,0x20(%rax)
  402d88:	48 8b 28             	mov    (%rax),%rbp
  402d8b:	48 89 6c 24 78       	mov    %rbp,0x78(%rsp)
  402d90:	48 89 2c 24          	mov    %rbp,(%rsp)
  402d94:	48 83 3c 24 00       	cmpq   $0x0,(%rsp)
  402d99:	74 56                	je     402df1 <runtime.chanrecv+0x291>
  402d9b:	48 83 04 24 70       	addq   $0x70,(%rsp)
  402da0:	48 89 44 24 08       	mov    %rax,0x8(%rsp)
  402da5:	e8 c6 4e 00 00       	callq  407c70 <runtime.writebarrierptr>
  402daa:	48 8b 6c 24 50       	mov    0x50(%rsp),%rbp
  402daf:	48 8b 5d 28          	mov    0x28(%rbp),%rbx
  402db3:	48 83 fb 00          	cmp    $0x0,%rbx
  402db7:	74 12                	je     402dcb <runtime.chanrecv+0x26b>
  402db9:	e8 42 b3 02 00       	callq  42e100 <runtime.cputicks>
  402dbe:	48 8b 04 24          	mov    (%rsp),%rax
  402dc2:	48 8b 5c 24 50       	mov    0x50(%rsp),%rbx
  402dc7:	48 89 43 28          	mov    %rax,0x28(%rbx)
  402dcb:	48 8b 5c 24 78       	mov    0x78(%rsp),%rbx
  402dd0:	48 89 1c 24          	mov    %rbx,(%rsp)
  402dd4:	e8 97 92 00 00       	callq  40c070 <runtime.goready>
  402dd9:	c6 84 24 c0 00 00 00 	movb   $0x1,0xc0(%rsp)
  402de0:	01 
  402de1:	c6 84 24 c1 00 00 00 	movb   $0x1,0xc1(%rsp)
  402de8:	01 
  402de9:	48 81 c4 98 00 00 00 	add    $0x98,%rsp
  402df0:	c3                   	retq   
  402df1:	89 04 25 00 00 00 00 	mov    %eax,0x0
  402df8:	eb a1                	jmp    402d9b <runtime.chanrecv+0x23b>
  402dfa:	89 04 25 00 00 00 00 	mov    %eax,0x0
  402e01:	e9 35 ff ff ff       	jmpq   402d3b <runtime.chanrecv+0x1db>
  402e06:	80 bc 24 b8 00 00 00 	cmpb   $0x0,0xb8(%rsp)
  402e0d:	00 
  402e0e:	75 26                	jne    402e36 <runtime.chanrecv+0x2d6>
  402e10:	48 89 0c 24          	mov    %rcx,(%rsp)
  402e14:	48 83 3c 24 00       	cmpq   $0x0,(%rsp)
  402e19:	74 12                	je     402e2d <runtime.chanrecv+0x2cd>
  402e1b:	48 83 04 24 58       	addq   $0x58,(%rsp)
  402e20:	e8 1b 33 00 00       	callq  406140 <runtime.unlock>
  402e25:	48 81 c4 98 00 00 00 	add    $0x98,%rsp
  402e2c:	c3                   	retq   
  402e2d:	89 04 25 00 00 00 00 	mov    %eax,0x0
  402e34:	eb e5                	jmp    402e1b <runtime.chanrecv+0x2bb>
  402e36:	e8 c5 65 02 00       	callq  429400 <runtime.getg>
  402e3b:	48 8b 1c 24          	mov    (%rsp),%rbx
  402e3f:	48 89 9c 24 80 00 00 	mov    %rbx,0x80(%rsp)
  402e46:	00 
  402e47:	e8 94 92 00 00       	callq  40c0e0 <runtime.acquireSudog>
  402e4c:	48 8b 04 24          	mov    (%rsp),%rax
  402e50:	48 c7 40 28 00 00 00 	movq   $0x0,0x28(%rax)
  402e57:	00 
  402e58:	48 8b 5c 24 30       	mov    0x30(%rsp),%rbx
  402e5d:	48 83 fb 00          	cmp    $0x0,%rbx
  402e61:	74 08                	je     402e6b <runtime.chanrecv+0x30b>
  402e63:	48 c7 40 28 ff ff ff 	movq   $0xffffffffffffffff,0x28(%rax)
  402e6a:	ff 
  402e6b:	48 89 44 24 68       	mov    %rax,0x68(%rsp)
  402e70:	48 89 04 24          	mov    %rax,(%rsp)
  402e74:	48 83 3c 24 00       	cmpq   $0x0,(%rsp)
  402e79:	0f 84 34 03 00 00    	je     4031b3 <runtime.chanrecv+0x653>
  402e7f:	48 83 04 24 20       	addq   $0x20,(%rsp)
  402e84:	48 8b 9c 24 b0 00 00 	mov    0xb0(%rsp),%rbx
  402e8b:	00 
  402e8c:	48 89 5c 24 08       	mov    %rbx,0x8(%rsp)
  402e91:	e8 da 4d 00 00       	callq  407c70 <runtime.writebarrierptr>
  402e96:	48 8b 44 24 68       	mov    0x68(%rsp),%rax
  402e9b:	31 ed                	xor    %ebp,%ebp
  402e9d:	48 89 68 38          	mov    %rbp,0x38(%rax)
  402ea1:	48 8b 9c 24 80 00 00 	mov    0x80(%rsp),%rbx
  402ea8:	00 
  402ea9:	48 89 1c 24          	mov    %rbx,(%rsp)
  402ead:	48 83 3c 24 00       	cmpq   $0x0,(%rsp)
  402eb2:	0f 84 ef 02 00 00    	je     4031a7 <runtime.chanrecv+0x647>
  402eb8:	48 81 04 24 08 01 00 	addq   $0x108,(%rsp)
  402ebf:	00 
  402ec0:	48 89 44 24 08       	mov    %rax,0x8(%rsp)
  402ec5:	e8 a6 4d 00 00       	callq  407c70 <runtime.writebarrierptr>
  402eca:	48 8b 5c 24 68       	mov    0x68(%rsp),%rbx
  402ecf:	48 89 1c 24          	mov    %rbx,(%rsp)
  402ed3:	48 83 3c 24 00       	cmpq   $0x0,(%rsp)
  402ed8:	0f 84 bd 02 00 00    	je     40319b <runtime.chanrecv+0x63b>
  402ede:	48 8b 9c 24 80 00 00 	mov    0x80(%rsp),%rbx
  402ee5:	00 
  402ee6:	48 89 5c 24 08       	mov    %rbx,0x8(%rsp)
  402eeb:	e8 80 4d 00 00       	callq  407c70 <runtime.writebarrierptr>
  402ef0:	48 8b 4c 24 68       	mov    0x68(%rsp),%rcx
  402ef5:	31 ed                	xor    %ebp,%ebp
  402ef7:	48 89 69 08          	mov    %rbp,0x8(%rcx)
  402efb:	48 8b 9c 24 80 00 00 	mov    0x80(%rsp),%rbx
  402f02:	00 
  402f03:	31 ed                	xor    %ebp,%ebp
  402f05:	48 89 6b 70          	mov    %rbp,0x70(%rbx)
  402f09:	48 8b 84 24 a8 00 00 	mov    0xa8(%rsp),%rax
  402f10:	00 
  402f11:	48 83 f8 00          	cmp    $0x0,%rax
  402f15:	0f 84 79 02 00 00    	je     403194 <runtime.chanrecv+0x634>
  402f1b:	48 83 c0 38          	add    $0x38,%rax
  402f1f:	31 ed                	xor    %ebp,%ebp
  402f21:	48 89 69 10          	mov    %rbp,0x10(%rcx)
  402f25:	48 8b 18             	mov    (%rax),%rbx
  402f28:	31 ed                	xor    %ebp,%ebp
  402f2a:	48 39 eb             	cmp    %rbp,%rbx
  402f2d:	0f 85 fe 01 00 00    	jne    403131 <runtime.chanrecv+0x5d1>
  402f33:	48 89 44 24 58       	mov    %rax,0x58(%rsp)
  402f38:	48 89 04 24          	mov    %rax,(%rsp)
  402f3c:	48 83 3c 24 00       	cmpq   $0x0,(%rsp)
  402f41:	0f 84 de 01 00 00    	je     403125 <runtime.chanrecv+0x5c5>
  402f47:	48 89 4c 24 38       	mov    %rcx,0x38(%rsp)
  402f4c:	48 89 4c 24 08       	mov    %rcx,0x8(%rsp)
  402f51:	e8 1a 4d 00 00       	callq  407c70 <runtime.writebarrierptr>
  402f56:	48 8b 5c 24 58       	mov    0x58(%rsp),%rbx
  402f5b:	48 89 1c 24          	mov    %rbx,(%rsp)
  402f5f:	48 83 3c 24 00       	cmpq   $0x0,(%rsp)
  402f64:	0f 84 af 01 00 00    	je     403119 <runtime.chanrecv+0x5b9>
  402f6a:	48 83 04 24 08       	addq   $0x8,(%rsp)
  402f6f:	48 8b 5c 24 38       	mov    0x38(%rsp),%rbx
  402f74:	48 89 5c 24 08       	mov    %rbx,0x8(%rsp)
  402f79:	e8 f2 4c 00 00       	callq  407c70 <runtime.writebarrierptr>
  402f7e:	48 8b b4 24 a8 00 00 	mov    0xa8(%rsp),%rsi
  402f85:	00 
  402f86:	48 89 34 24          	mov    %rsi,(%rsp)
  402f8a:	48 83 3c 24 00       	cmpq   $0x0,(%rsp)
  402f8f:	0f 84 78 01 00 00    	je     40310d <runtime.chanrecv+0x5ad>
  402f95:	48 83 04 24 58       	addq   $0x58,(%rsp)
  402f9a:	48 8d 35 ff 11 04 00 	lea    0x411ff(%rip),%rsi        # 4441a0 <go.string.*+0x40b8>
  402fa1:	48 8d 6c 24 08       	lea    0x8(%rsp),%rbp
  402fa6:	48 89 ef             	mov    %rbp,%rdi
  402fa9:	48 a5                	movsq  %ds:(%rsi),%es:(%rdi)
  402fab:	48 a5                	movsq  %ds:(%rsi),%es:(%rdi)
  402fad:	e8 6e 90 00 00       	callq  40c020 <runtime.goparkunlock>
  402fb2:	48 8b 8c 24 80 00 00 	mov    0x80(%rsp),%rcx
  402fb9:	00 
  402fba:	48 8b 44 24 68       	mov    0x68(%rsp),%rax
  402fbf:	48 8b 99 08 01 00 00 	mov    0x108(%rcx),%rbx
  402fc6:	48 39 c3             	cmp    %rax,%rbx
  402fc9:	74 27                	je     402ff2 <runtime.chanrecv+0x492>
  402fcb:	48 8d 1d ae 59 04 00 	lea    0x459ae(%rip),%rbx        # 448980 <go.string.*+0x8898>
  402fd2:	48 8d 2c 24          	lea    (%rsp),%rbp
  402fd6:	48 89 ef             	mov    %rbp,%rdi
  402fd9:	48 89 de             	mov    %rbx,%rsi
  402fdc:	48 a5                	movsq  %ds:(%rsi),%es:(%rdi)
  402fde:	48 a5                	movsq  %ds:(%rsi),%es:(%rdi)
  402fe0:	e8 0b 76 00 00       	callq  40a5f0 <runtime.gothrow>
  402fe5:	48 8b 8c 24 80 00 00 	mov    0x80(%rsp),%rcx
  402fec:	00 
  402fed:	48 8b 44 24 68       	mov    0x68(%rsp),%rax
  402ff2:	31 ed                	xor    %ebp,%ebp
  402ff4:	48 89 a9 08 01 00 00 	mov    %rbp,0x108(%rcx)
  402ffb:	48 8b 58 28          	mov    0x28(%rax),%rbx
  402fff:	48 83 fb 00          	cmp    $0x0,%rbx
  403003:	7e 2b                	jle    403030 <runtime.chanrecv+0x4d0>
  403005:	48 8b 58 28          	mov    0x28(%rax),%rbx
  403009:	48 8b 6c 24 30       	mov    0x30(%rsp),%rbp
  40300e:	48 29 eb             	sub    %rbp,%rbx
  403011:	48 89 1c 24          	mov    %rbx,(%rsp)
  403015:	48 c7 44 24 08 02 00 	movq   $0x2,0x8(%rsp)
  40301c:	00 00 
  40301e:	e8 bd 57 00 00       	callq  4087e0 <runtime.blockevent>
  403023:	48 8b 8c 24 80 00 00 	mov    0x80(%rsp),%rcx
  40302a:	00 
  40302b:	48 8b 44 24 68       	mov    0x68(%rsp),%rax
  403030:	48 8b 59 70          	mov    0x70(%rcx),%rbx
  403034:	31 ed                	xor    %ebp,%ebp
  403036:	48 39 eb             	cmp    %rbp,%rbx
  403039:	0f 85 c4 00 00 00    	jne    403103 <runtime.chanrecv+0x5a3>
  40303f:	c6 44 24 27 00       	movb   $0x0,0x27(%rsp)
  403044:	31 ed                	xor    %ebp,%ebp
  403046:	48 89 69 70          	mov    %rbp,0x70(%rcx)
  40304a:	48 89 04 24          	mov    %rax,(%rsp)
  40304e:	e8 6d 91 00 00       	callq  40c1c0 <runtime.releaseSudog>
  403053:	80 7c 24 27 00       	cmpb   $0x0,0x27(%rsp)
  403058:	74 18                	je     403072 <runtime.chanrecv+0x512>
  40305a:	c6 84 24 c0 00 00 00 	movb   $0x1,0xc0(%rsp)
  403061:	01 
  403062:	c6 84 24 c1 00 00 00 	movb   $0x1,0xc1(%rsp)
  403069:	01 
  40306a:	48 81 c4 98 00 00 00 	add    $0x98,%rsp
  403071:	c3                   	retq   
  403072:	48 8b 9c 24 a8 00 00 	mov    0xa8(%rsp),%rbx
  403079:	00 
  40307a:	48 89 1c 24          	mov    %rbx,(%rsp)
  40307e:	48 83 3c 24 00       	cmpq   $0x0,(%rsp)
  403083:	74 75                	je     4030fa <runtime.chanrecv+0x59a>
  403085:	48 83 04 24 58       	addq   $0x58,(%rsp)
  40308a:	e8 a1 2e 00 00       	callq  405f30 <runtime.lock>
  40308f:	48 8b ac 24 a8 00 00 	mov    0xa8(%rsp),%rbp
  403096:	00 
  403097:	8b 5d 1c             	mov    0x1c(%rbp),%ebx
  40309a:	83 fb 00             	cmp    $0x0,%ebx
  40309d:	75 1a                	jne    4030b9 <runtime.chanrecv+0x559>
  40309f:	48 8d 1d 9a 5a 04 00 	lea    0x45a9a(%rip),%rbx        # 448b40 <go.string.*+0x8a58>
  4030a6:	48 8d 2c 24          	lea    (%rsp),%rbp
  4030aa:	48 89 ef             	mov    %rbp,%rdi
  4030ad:	48 89 de             	mov    %rbx,%rsi
  4030b0:	48 a5                	movsq  %ds:(%rsi),%es:(%rdi)
  4030b2:	48 a5                	movsq  %ds:(%rsi),%es:(%rdi)
  4030b4:	e8 37 75 00 00       	callq  40a5f0 <runtime.gothrow>
  4030b9:	48 8b 9c 24 a8 00 00 	mov    0xa8(%rsp),%rbx
  4030c0:	00 
  4030c1:	48 89 1c 24          	mov    %rbx,(%rsp)
  4030c5:	48 8b 9c 24 b0 00 00 	mov    0xb0(%rsp),%rbx
  4030cc:	00 
  4030cd:	48 89 5c 24 08       	mov    %rbx,0x8(%rsp)
  4030d2:	e8 c9 05 00 00       	callq  4036a0 <runtime.recvclosed>
  4030d7:	0f b6 5c 24 10       	movzbl 0x10(%rsp),%ebx
  4030dc:	48 89 d8             	mov    %rbx,%rax
  4030df:	0f b6 5c 24 11       	movzbl 0x11(%rsp),%ebx
  4030e4:	88 84 24 c0 00 00 00 	mov    %al,0xc0(%rsp)
  4030eb:	88 9c 24 c1 00 00 00 	mov    %bl,0xc1(%rsp)
  4030f2:	48 81 c4 98 00 00 00 	add    $0x98,%rsp
  4030f9:	c3                   	retq   
  4030fa:	89 04 25 00 00 00 00 	mov    %eax,0x0
  403101:	eb 82                	jmp    403085 <runtime.chanrecv+0x525>
  403103:	c6 44 24 27 01       	movb   $0x1,0x27(%rsp)
  403108:	e9 37 ff ff ff       	jmpq   403044 <runtime.chanrecv+0x4e4>
  40310d:	89 04 25 00 00 00 00 	mov    %eax,0x0
  403114:	e9 7c fe ff ff       	jmpq   402f95 <runtime.chanrecv+0x435>
  403119:	89 04 25 00 00 00 00 	mov    %eax,0x0
  403120:	e9 45 fe ff ff       	jmpq   402f6a <runtime.chanrecv+0x40a>
  403125:	89 04 25 00 00 00 00 	mov    %eax,0x0
  40312c:	e9 16 fe ff ff       	jmpq   402f47 <runtime.chanrecv+0x3e7>
  403131:	48 89 44 24 58       	mov    %rax,0x58(%rsp)
  403136:	48 8b 68 08          	mov    0x8(%rax),%rbp
  40313a:	48 89 2c 24          	mov    %rbp,(%rsp)
  40313e:	48 83 3c 24 00       	cmpq   $0x0,(%rsp)
  403143:	74 46                	je     40318b <runtime.chanrecv+0x62b>
  403145:	48 83 04 24 10       	addq   $0x10,(%rsp)
  40314a:	48 89 4c 24 38       	mov    %rcx,0x38(%rsp)
  40314f:	48 89 4c 24 08       	mov    %rcx,0x8(%rsp)
  403154:	e8 17 4b 00 00       	callq  407c70 <runtime.writebarrierptr>
  403159:	48 8b 5c 24 58       	mov    0x58(%rsp),%rbx
  40315e:	48 89 1c 24          	mov    %rbx,(%rsp)
  403162:	48 83 3c 24 00       	cmpq   $0x0,(%rsp)
  403167:	74 19                	je     403182 <runtime.chanrecv+0x622>
  403169:	48 83 04 24 08       	addq   $0x8,(%rsp)
  40316e:	48 8b 5c 24 38       	mov    0x38(%rsp),%rbx
  403173:	48 89 5c 24 08       	mov    %rbx,0x8(%rsp)
  403178:	e8 f3 4a 00 00       	callq  407c70 <runtime.writebarrierptr>
  40317d:	e9 fc fd ff ff       	jmpq   402f7e <runtime.chanrecv+0x41e>
  403182:	89 04 25 00 00 00 00 	mov    %eax,0x0
  403189:	eb de                	jmp    403169 <runtime.chanrecv+0x609>
  40318b:	89 04 25 00 00 00 00 	mov    %eax,0x0
  403192:	eb b1                	jmp    403145 <runtime.chanrecv+0x5e5>
  403194:	89 00                	mov    %eax,(%rax)
  403196:	e9 80 fd ff ff       	jmpq   402f1b <runtime.chanrecv+0x3bb>
  40319b:	89 04 25 00 00 00 00 	mov    %eax,0x0
  4031a2:	e9 37 fd ff ff       	jmpq   402ede <runtime.chanrecv+0x37e>
  4031a7:	89 04 25 00 00 00 00 	mov    %eax,0x0
  4031ae:	e9 05 fd ff ff       	jmpq   402eb8 <runtime.chanrecv+0x358>
  4031b3:	89 04 25 00 00 00 00 	mov    %eax,0x0
  4031ba:	e9 c0 fc ff ff       	jmpq   402e7f <runtime.chanrecv+0x31f>
  4031bf:	89 04 25 00 00 00 00 	mov    %eax,0x0
  4031c6:	e9 3a fb ff ff       	jmpq   402d05 <runtime.chanrecv+0x1a5>
  4031cb:	48 c7 44 24 28 00 00 	movq   $0x0,0x28(%rsp)
  4031d2:	00 00 
  4031d4:	48 8b 18             	mov    (%rax),%rbx
  4031d7:	48 83 fb 00          	cmp    $0x0,%rbx
  4031db:	0f 87 02 02 00 00    	ja     4033e3 <runtime.chanrecv+0x883>
  4031e1:	8b 58 1c             	mov    0x1c(%rax),%ebx
  4031e4:	83 fb 00             	cmp    $0x0,%ebx
  4031e7:	74 5e                	je     403247 <runtime.chanrecv+0x6e7>
  4031e9:	48 89 04 24          	mov    %rax,(%rsp)
  4031ed:	48 8b 9c 24 b0 00 00 	mov    0xb0(%rsp),%rbx
  4031f4:	00 
  4031f5:	48 89 5c 24 08       	mov    %rbx,0x8(%rsp)
  4031fa:	e8 a1 04 00 00       	callq  4036a0 <runtime.recvclosed>
  4031ff:	48 8b 44 24 28       	mov    0x28(%rsp),%rax
  403204:	0f b6 5c 24 10       	movzbl 0x10(%rsp),%ebx
  403209:	88 9c 24 c0 00 00 00 	mov    %bl,0xc0(%rsp)
  403210:	0f b6 5c 24 11       	movzbl 0x11(%rsp),%ebx
  403215:	88 9c 24 c1 00 00 00 	mov    %bl,0xc1(%rsp)
  40321c:	48 83 f8 00          	cmp    $0x0,%rax
  403220:	7e 1d                	jle    40323f <runtime.chanrecv+0x6df>
  403222:	48 8b 6c 24 30       	mov    0x30(%rsp),%rbp
  403227:	48 89 c3             	mov    %rax,%rbx
  40322a:	48 29 eb             	sub    %rbp,%rbx
  40322d:	48 89 1c 24          	mov    %rbx,(%rsp)
  403231:	48 c7 44 24 08 02 00 	movq   $0x2,0x8(%rsp)
  403238:	00 00 
  40323a:	e8 a1 55 00 00       	callq  4087e0 <runtime.blockevent>
  40323f:	48 81 c4 98 00 00 00 	add    $0x98,%rsp
  403246:	c3                   	retq   
  403247:	80 bc 24 b8 00 00 00 	cmpb   $0x0,0xb8(%rsp)
  40324e:	00 
  40324f:	75 26                	jne    403277 <runtime.chanrecv+0x717>
  403251:	48 89 04 24          	mov    %rax,(%rsp)
  403255:	48 83 3c 24 00       	cmpq   $0x0,(%rsp)
  40325a:	74 12                	je     40326e <runtime.chanrecv+0x70e>
  40325c:	48 83 04 24 58       	addq   $0x58,(%rsp)
  403261:	e8 da 2e 00 00       	callq  406140 <runtime.unlock>
  403266:	48 81 c4 98 00 00 00 	add    $0x98,%rsp
  40326d:	c3                   	retq   
  40326e:	89 04 25 00 00 00 00 	mov    %eax,0x0
  403275:	eb e5                	jmp    40325c <runtime.chanrecv+0x6fc>
  403277:	e8 84 61 02 00       	callq  429400 <runtime.getg>
  40327c:	48 8b 1c 24          	mov    (%rsp),%rbx
  403280:	48 89 9c 24 88 00 00 	mov    %rbx,0x88(%rsp)
  403287:	00 
  403288:	e8 53 8e 00 00       	callq  40c0e0 <runtime.acquireSudog>
  40328d:	48 8b 04 24          	mov    (%rsp),%rax
  403291:	48 c7 40 28 00 00 00 	movq   $0x0,0x28(%rax)
  403298:	00 
  403299:	48 8b 5c 24 30       	mov    0x30(%rsp),%rbx
  40329e:	48 83 fb 00          	cmp    $0x0,%rbx
  4032a2:	74 08                	je     4032ac <runtime.chanrecv+0x74c>
  4032a4:	48 c7 40 28 ff ff ff 	movq   $0xffffffffffffffff,0x28(%rax)
  4032ab:	ff 
  4032ac:	31 ed                	xor    %ebp,%ebp
  4032ae:	48 89 68 20          	mov    %rbp,0x20(%rax)
  4032b2:	48 89 44 24 70       	mov    %rax,0x70(%rsp)
  4032b7:	48 89 04 24          	mov    %rax,(%rsp)
  4032bb:	48 83 3c 24 00       	cmpq   $0x0,(%rsp)
  4032c0:	0f 84 72 03 00 00    	je     403638 <runtime.chanrecv+0xad8>
  4032c6:	48 8b 9c 24 88 00 00 	mov    0x88(%rsp),%rbx
  4032cd:	00 
  4032ce:	48 89 5c 24 08       	mov    %rbx,0x8(%rsp)
  4032d3:	e8 98 49 00 00       	callq  407c70 <runtime.writebarrierptr>
  4032d8:	48 8b 4c 24 70       	mov    0x70(%rsp),%rcx
  4032dd:	31 ed                	xor    %ebp,%ebp
  4032df:	48 89 69 08          	mov    %rbp,0x8(%rcx)
  4032e3:	48 8b 84 24 a8 00 00 	mov    0xa8(%rsp),%rax
  4032ea:	00 
  4032eb:	48 83 f8 00          	cmp    $0x0,%rax
  4032ef:	0f 84 3c 03 00 00    	je     403631 <runtime.chanrecv+0xad1>
  4032f5:	48 83 c0 38          	add    $0x38,%rax
  4032f9:	31 ed                	xor    %ebp,%ebp
  4032fb:	48 89 69 10          	mov    %rbp,0x10(%rcx)
  4032ff:	48 8b 18             	mov    (%rax),%rbx
  403302:	31 ed                	xor    %ebp,%ebp
  403304:	48 39 eb             	cmp    %rbp,%rbx
  403307:	0f 85 c1 02 00 00    	jne    4035ce <runtime.chanrecv+0xa6e>
  40330d:	48 89 44 24 60       	mov    %rax,0x60(%rsp)
  403312:	48 89 04 24          	mov    %rax,(%rsp)
  403316:	48 83 3c 24 00       	cmpq   $0x0,(%rsp)
  40331b:	0f 84 a1 02 00 00    	je     4035c2 <runtime.chanrecv+0xa62>
  403321:	48 89 4c 24 40       	mov    %rcx,0x40(%rsp)
  403326:	48 89 4c 24 08       	mov    %rcx,0x8(%rsp)
  40332b:	e8 40 49 00 00       	callq  407c70 <runtime.writebarrierptr>
  403330:	48 8b 5c 24 60       	mov    0x60(%rsp),%rbx
  403335:	48 89 1c 24          	mov    %rbx,(%rsp)
  403339:	48 83 3c 24 00       	cmpq   $0x0,(%rsp)
  40333e:	0f 84 72 02 00 00    	je     4035b6 <runtime.chanrecv+0xa56>
  403344:	48 83 04 24 08       	addq   $0x8,(%rsp)
  403349:	48 8b 5c 24 40       	mov    0x40(%rsp),%rbx
  40334e:	48 89 5c 24 08       	mov    %rbx,0x8(%rsp)
  403353:	e8 18 49 00 00       	callq  407c70 <runtime.writebarrierptr>
  403358:	48 8b b4 24 a8 00 00 	mov    0xa8(%rsp),%rsi
  40335f:	00 
  403360:	48 89 34 24          	mov    %rsi,(%rsp)
  403364:	48 83 3c 24 00       	cmpq   $0x0,(%rsp)
  403369:	0f 84 3b 02 00 00    	je     4035aa <runtime.chanrecv+0xa4a>
  40336f:	48 83 04 24 58       	addq   $0x58,(%rsp)
  403374:	48 8d 35 25 0e 04 00 	lea    0x40e25(%rip),%rsi        # 4441a0 <go.string.*+0x40b8>
  40337b:	48 8d 6c 24 08       	lea    0x8(%rsp),%rbp
  403380:	48 89 ef             	mov    %rbp,%rdi
  403383:	48 a5                	movsq  %ds:(%rsi),%es:(%rdi)
  403385:	48 a5                	movsq  %ds:(%rsi),%es:(%rdi)
  403387:	e8 94 8c 00 00       	callq  40c020 <runtime.goparkunlock>
  40338c:	48 8b 44 24 70       	mov    0x70(%rsp),%rax
  403391:	48 8b 58 28          	mov    0x28(%rax),%rbx
  403395:	48 83 fb 00          	cmp    $0x0,%rbx
  403399:	7e 09                	jle    4033a4 <runtime.chanrecv+0x844>
  40339b:	48 8b 68 28          	mov    0x28(%rax),%rbp
  40339f:	48 89 6c 24 28       	mov    %rbp,0x28(%rsp)
  4033a4:	48 89 04 24          	mov    %rax,(%rsp)
  4033a8:	e8 13 8e 00 00       	callq  40c1c0 <runtime.releaseSudog>
  4033ad:	48 8b 9c 24 a8 00 00 	mov    0xa8(%rsp),%rbx
  4033b4:	00 
  4033b5:	48 89 1c 24          	mov    %rbx,(%rsp)
  4033b9:	48 83 3c 24 00       	cmpq   $0x0,(%rsp)
  4033be:	0f 84 da 01 00 00    	je     40359e <runtime.chanrecv+0xa3e>
  4033c4:	48 83 04 24 58       	addq   $0x58,(%rsp)
  4033c9:	e8 62 2b 00 00       	callq  405f30 <runtime.lock>
  4033ce:	48 8b 84 24 a8 00 00 	mov    0xa8(%rsp),%rax
  4033d5:	00 
  4033d6:	48 8b 18             	mov    (%rax),%rbx
  4033d9:	48 83 fb 00          	cmp    $0x0,%rbx
  4033dd:	0f 86 fe fd ff ff    	jbe    4031e1 <runtime.chanrecv+0x681>
  4033e3:	48 8b 9c 24 b0 00 00 	mov    0xb0(%rsp),%rbx
  4033ea:	00 
  4033eb:	31 ed                	xor    %ebp,%ebp
  4033ed:	48 39 eb             	cmp    %rbp,%rbx
  4033f0:	74 47                	je     403439 <runtime.chanrecv+0x8d9>
  4033f2:	48 89 04 24          	mov    %rax,(%rsp)
  4033f6:	48 8b 68 30          	mov    0x30(%rax),%rbp
  4033fa:	48 89 6c 24 08       	mov    %rbp,0x8(%rsp)
  4033ff:	e8 8c ec ff ff       	callq  402090 <runtime.chanbuf>
  403404:	48 8b 44 24 10       	mov    0x10(%rsp),%rax
  403409:	48 8b 9c 24 b0 00 00 	mov    0xb0(%rsp),%rbx
  403410:	00 
  403411:	48 89 1c 24          	mov    %rbx,(%rsp)
  403415:	48 89 44 24 08       	mov    %rax,0x8(%rsp)
  40341a:	48 8b 9c 24 a8 00 00 	mov    0xa8(%rsp),%rbx
  403421:	00 
  403422:	48 0f b7 6b 18       	movzwq 0x18(%rbx),%rbp
  403427:	48 89 6c 24 10       	mov    %rbp,0x10(%rsp)
  40342c:	e8 af b9 02 00       	callq  42ede0 <runtime.memmove>
  403431:	48 8b 84 24 a8 00 00 	mov    0xa8(%rsp),%rax
  403438:	00 
  403439:	48 89 04 24          	mov    %rax,(%rsp)
  40343d:	48 8b 68 30          	mov    0x30(%rax),%rbp
  403441:	48 89 6c 24 08       	mov    %rbp,0x8(%rsp)
  403446:	e8 45 ec ff ff       	callq  402090 <runtime.chanbuf>
  40344b:	48 8b 5c 24 10       	mov    0x10(%rsp),%rbx
  403450:	48 89 1c 24          	mov    %rbx,(%rsp)
  403454:	48 8b 9c 24 a8 00 00 	mov    0xa8(%rsp),%rbx
  40345b:	00 
  40345c:	48 0f b7 6b 18       	movzwq 0x18(%rbx),%rbp
  403461:	48 89 6c 24 08       	mov    %rbp,0x8(%rsp)
  403466:	e8 b5 b7 02 00       	callq  42ec20 <runtime.memclr>
  40346b:	48 8b 84 24 a8 00 00 	mov    0xa8(%rsp),%rax
  403472:	00 
  403473:	48 8b 68 30          	mov    0x30(%rax),%rbp
  403477:	48 ff c5             	inc    %rbp
  40347a:	48 89 68 30          	mov    %rbp,0x30(%rax)
  40347e:	48 8b 58 30          	mov    0x30(%rax),%rbx
  403482:	48 8b 68 08          	mov    0x8(%rax),%rbp
  403486:	48 39 eb             	cmp    %rbp,%rbx
  403489:	75 08                	jne    403493 <runtime.chanrecv+0x933>
  40348b:	48 c7 40 30 00 00 00 	movq   $0x0,0x30(%rax)
  403492:	00 
  403493:	48 8b 28             	mov    (%rax),%rbp
  403496:	48 ff cd             	dec    %rbp
  403499:	48 89 28             	mov    %rbp,(%rax)
  40349c:	48 89 04 24          	mov    %rax,(%rsp)
  4034a0:	48 83 3c 24 00       	cmpq   $0x0,(%rsp)
  4034a5:	0f 84 e7 00 00 00    	je     403592 <runtime.chanrecv+0xa32>
  4034ab:	48 83 04 24 48       	addq   $0x48,(%rsp)
  4034b0:	e8 3b 03 00 00       	callq  4037f0 <runtime.(*waitq).dequeue>
  4034b5:	48 8b 8c 24 a8 00 00 	mov    0xa8(%rsp),%rcx
  4034bc:	00 
  4034bd:	48 8b 44 24 08       	mov    0x8(%rsp),%rax
  4034c2:	31 ed                	xor    %ebp,%ebp
  4034c4:	48 39 e8             	cmp    %rbp,%rax
  4034c7:	0f 84 a5 00 00 00    	je     403572 <runtime.chanrecv+0xa12>
  4034cd:	48 89 44 24 48       	mov    %rax,0x48(%rsp)
  4034d2:	48 8b 28             	mov    (%rax),%rbp
  4034d5:	48 89 ac 24 90 00 00 	mov    %rbp,0x90(%rsp)
  4034dc:	00 
  4034dd:	48 89 0c 24          	mov    %rcx,(%rsp)
  4034e1:	48 83 3c 24 00       	cmpq   $0x0,(%rsp)
  4034e6:	74 7e                	je     403566 <runtime.chanrecv+0xa06>
  4034e8:	48 83 04 24 58       	addq   $0x58,(%rsp)
  4034ed:	e8 4e 2c 00 00       	callq  406140 <runtime.unlock>
  4034f2:	48 8b 6c 24 48       	mov    0x48(%rsp),%rbp
  4034f7:	48 8b 5d 28          	mov    0x28(%rbp),%rbx
  4034fb:	48 83 fb 00          	cmp    $0x0,%rbx
  4034ff:	74 12                	je     403513 <runtime.chanrecv+0x9b3>
  403501:	e8 fa ab 02 00       	callq  42e100 <runtime.cputicks>
  403506:	48 8b 04 24          	mov    (%rsp),%rax
  40350a:	48 8b 5c 24 48       	mov    0x48(%rsp),%rbx
  40350f:	48 89 43 28          	mov    %rax,0x28(%rbx)
  403513:	48 8b 9c 24 90 00 00 	mov    0x90(%rsp),%rbx
  40351a:	00 
  40351b:	48 89 1c 24          	mov    %rbx,(%rsp)
  40351f:	e8 4c 8b 00 00       	callq  40c070 <runtime.goready>
  403524:	48 8b 5c 24 28       	mov    0x28(%rsp),%rbx
  403529:	48 83 fb 00          	cmp    $0x0,%rbx
  40352d:	7e 1f                	jle    40354e <runtime.chanrecv+0x9ee>
  40352f:	48 8b 5c 24 28       	mov    0x28(%rsp),%rbx
  403534:	48 8b 6c 24 30       	mov    0x30(%rsp),%rbp
  403539:	48 29 eb             	sub    %rbp,%rbx
  40353c:	48 89 1c 24          	mov    %rbx,(%rsp)
  403540:	48 c7 44 24 08 02 00 	movq   $0x2,0x8(%rsp)
  403547:	00 00 
  403549:	e8 92 52 00 00       	callq  4087e0 <runtime.blockevent>
  40354e:	c6 84 24 c0 00 00 00 	movb   $0x1,0xc0(%rsp)
  403555:	01 
  403556:	c6 84 24 c1 00 00 00 	movb   $0x1,0xc1(%rsp)
  40355d:	01 
  40355e:	48 81 c4 98 00 00 00 	add    $0x98,%rsp
  403565:	c3                   	retq   
  403566:	89 04 25 00 00 00 00 	mov    %eax,0x0
  40356d:	e9 76 ff ff ff       	jmpq   4034e8 <runtime.chanrecv+0x988>
  403572:	48 89 0c 24          	mov    %rcx,(%rsp)
  403576:	48 83 3c 24 00       	cmpq   $0x0,(%rsp)
  40357b:	74 0c                	je     403589 <runtime.chanrecv+0xa29>
  40357d:	48 83 04 24 58       	addq   $0x58,(%rsp)
  403582:	e8 b9 2b 00 00       	callq  406140 <runtime.unlock>
  403587:	eb 9b                	jmp    403524 <runtime.chanrecv+0x9c4>
  403589:	89 04 25 00 00 00 00 	mov    %eax,0x0
  403590:	eb eb                	jmp    40357d <runtime.chanrecv+0xa1d>
  403592:	89 04 25 00 00 00 00 	mov    %eax,0x0
  403599:	e9 0d ff ff ff       	jmpq   4034ab <runtime.chanrecv+0x94b>
  40359e:	89 04 25 00 00 00 00 	mov    %eax,0x0
  4035a5:	e9 1a fe ff ff       	jmpq   4033c4 <runtime.chanrecv+0x864>
  4035aa:	89 04 25 00 00 00 00 	mov    %eax,0x0
  4035b1:	e9 b9 fd ff ff       	jmpq   40336f <runtime.chanrecv+0x80f>
  4035b6:	89 04 25 00 00 00 00 	mov    %eax,0x0
  4035bd:	e9 82 fd ff ff       	jmpq   403344 <runtime.chanrecv+0x7e4>
  4035c2:	89 04 25 00 00 00 00 	mov    %eax,0x0
  4035c9:	e9 53 fd ff ff       	jmpq   403321 <runtime.chanrecv+0x7c1>
  4035ce:	48 89 44 24 60       	mov    %rax,0x60(%rsp)
  4035d3:	48 8b 68 08          	mov    0x8(%rax),%rbp
  4035d7:	48 89 2c 24          	mov    %rbp,(%rsp)
  4035db:	48 83 3c 24 00       	cmpq   $0x0,(%rsp)
  4035e0:	74 46                	je     403628 <runtime.chanrecv+0xac8>
  4035e2:	48 83 04 24 10       	addq   $0x10,(%rsp)
  4035e7:	48 89 4c 24 40       	mov    %rcx,0x40(%rsp)
  4035ec:	48 89 4c 24 08       	mov    %rcx,0x8(%rsp)
  4035f1:	e8 7a 46 00 00       	callq  407c70 <runtime.writebarrierptr>
  4035f6:	48 8b 5c 24 60       	mov    0x60(%rsp),%rbx
  4035fb:	48 89 1c 24          	mov    %rbx,(%rsp)
  4035ff:	48 83 3c 24 00       	cmpq   $0x0,(%rsp)
  403604:	74 19                	je     40361f <runtime.chanrecv+0xabf>
  403606:	48 83 04 24 08       	addq   $0x8,(%rsp)
  40360b:	48 8b 5c 24 40       	mov    0x40(%rsp),%rbx
  403610:	48 89 5c 24 08       	mov    %rbx,0x8(%rsp)
  403615:	e8 56 46 00 00       	callq  407c70 <runtime.writebarrierptr>
  40361a:	e9 39 fd ff ff       	jmpq   403358 <runtime.chanrecv+0x7f8>
  40361f:	89 04 25 00 00 00 00 	mov    %eax,0x0
  403626:	eb de                	jmp    403606 <runtime.chanrecv+0xaa6>
  403628:	89 04 25 00 00 00 00 	mov    %eax,0x0
  40362f:	eb b1                	jmp    4035e2 <runtime.chanrecv+0xa82>
  403631:	89 00                	mov    %eax,(%rax)
  403633:	e9 bd fc ff ff       	jmpq   4032f5 <runtime.chanrecv+0x795>
  403638:	89 04 25 00 00 00 00 	mov    %eax,0x0
  40363f:	e9 82 fc ff ff       	jmpq   4032c6 <runtime.chanrecv+0x766>
  403644:	89 04 25 00 00 00 00 	mov    %eax,0x0
  40364b:	e9 45 f6 ff ff       	jmpq   402c95 <runtime.chanrecv+0x135>
  403650:	89 04 25 00 00 00 00 	mov    %eax,0x0
  403657:	e9 db f5 ff ff       	jmpq   402c37 <runtime.chanrecv+0xd7>
  40365c:	48 8b 59 08          	mov    0x8(%rcx),%rbx
  403660:	48 83 fb 00          	cmp    $0x0,%rbx
  403664:	0f 86 f0 f5 ff ff    	jbe    402c5a <runtime.chanrecv+0xfa>
  40366a:	48 89 0c 24          	mov    %rcx,(%rsp)
  40366e:	48 83 3c 24 00       	cmpq   $0x0,(%rsp)
  403673:	74 21                	je     403696 <runtime.chanrecv+0xb36>
  403675:	e8 26 a7 02 00       	callq  42dda0 <runtime.atomicloaduint>
  40367a:	48 8b 8c 24 a8 00 00 	mov    0xa8(%rsp),%rcx
  403681:	00 
  403682:	48 8b 5c 24 08       	mov    0x8(%rsp),%rbx
  403687:	48 83 fb 00          	cmp    $0x0,%rbx
  40368b:	0f 84 97 f5 ff ff    	je     402c28 <runtime.chanrecv+0xc8>
  403691:	e9 c4 f5 ff ff       	jmpq   402c5a <runtime.chanrecv+0xfa>
  403696:	89 04 25 00 00 00 00 	mov    %eax,0x0
  40369d:	eb d6                	jmp    403675 <runtime.chanrecv+0xb15>
	...

00000000004036a0 <runtime.recvclosed>:
  4036a0:	64 48 8b 0c 25 f0 ff 	mov    %fs:0xfffffffffffffff0,%rcx
  4036a7:	ff ff 
  4036a9:	48 3b 61 10          	cmp    0x10(%rcx),%rsp
  4036ad:	77 07                	ja     4036b6 <runtime.recvclosed+0x16>
  4036af:	e8 9c 94 02 00       	callq  42cb50 <runtime.morestack_noctxt>
  4036b4:	eb ea                	jmp    4036a0 <runtime.recvclosed>
  4036b6:	48 83 ec 10          	sub    $0x10,%rsp
  4036ba:	48 8b 5c 24 18       	mov    0x18(%rsp),%rbx
  4036bf:	48 89 1c 24          	mov    %rbx,(%rsp)
  4036c3:	48 83 3c 24 00       	cmpq   $0x0,(%rsp)
  4036c8:	74 3d                	je     403707 <runtime.recvclosed+0x67>
  4036ca:	48 83 04 24 58       	addq   $0x58,(%rsp)
  4036cf:	e8 6c 2a 00 00       	callq  406140 <runtime.unlock>
  4036d4:	48 8b 44 24 20       	mov    0x20(%rsp),%rax
  4036d9:	31 ed                	xor    %ebp,%ebp
  4036db:	48 39 e8             	cmp    %rbp,%rax
  4036de:	74 18                	je     4036f8 <runtime.recvclosed+0x58>
  4036e0:	48 89 04 24          	mov    %rax,(%rsp)
  4036e4:	48 8b 5c 24 18       	mov    0x18(%rsp),%rbx
  4036e9:	48 0f b7 6b 18       	movzwq 0x18(%rbx),%rbp
  4036ee:	48 89 6c 24 08       	mov    %rbp,0x8(%rsp)
  4036f3:	e8 28 b5 02 00       	callq  42ec20 <runtime.memclr>
  4036f8:	c6 44 24 28 01       	movb   $0x1,0x28(%rsp)
  4036fd:	c6 44 24 29 00       	movb   $0x0,0x29(%rsp)
  403702:	48 83 c4 10          	add    $0x10,%rsp
  403706:	c3                   	retq   
  403707:	89 04 25 00 00 00 00 	mov    %eax,0x0
  40370e:	eb ba                	jmp    4036ca <runtime.recvclosed+0x2a>

0000000000403710 <runtime.(*waitq).enqueue>:
  403710:	64 48 8b 0c 25 f0 ff 	mov    %fs:0xfffffffffffffff0,%rcx
  403717:	ff ff 
  403719:	48 3b 61 10          	cmp    0x10(%rcx),%rsp
  40371d:	77 07                	ja     403726 <runtime.(*waitq).enqueue+0x16>
  40371f:	e8 2c 94 02 00       	callq  42cb50 <runtime.morestack_noctxt>
  403724:	eb ea                	jmp    403710 <runtime.(*waitq).enqueue>
  403726:	48 83 ec 10          	sub    $0x10,%rsp
  40372a:	48 8b 4c 24 20       	mov    0x20(%rsp),%rcx
  40372f:	48 8b 44 24 18       	mov    0x18(%rsp),%rax
  403734:	31 ed                	xor    %ebp,%ebp
  403736:	48 89 69 10          	mov    %rbp,0x10(%rcx)
  40373a:	48 8b 18             	mov    (%rax),%rbx
  40373d:	31 ed                	xor    %ebp,%ebp
  40373f:	48 39 eb             	cmp    %rbp,%rbx
  403742:	75 50                	jne    403794 <runtime.(*waitq).enqueue+0x84>
  403744:	48 89 04 24          	mov    %rax,(%rsp)
  403748:	48 83 3c 24 00       	cmpq   $0x0,(%rsp)
  40374d:	74 3c                	je     40378b <runtime.(*waitq).enqueue+0x7b>
  40374f:	48 89 4c 24 08       	mov    %rcx,0x8(%rsp)
  403754:	e8 17 45 00 00       	callq  407c70 <runtime.writebarrierptr>
  403759:	48 8b 5c 24 18       	mov    0x18(%rsp),%rbx
  40375e:	48 89 1c 24          	mov    %rbx,(%rsp)
  403762:	48 83 3c 24 00       	cmpq   $0x0,(%rsp)
  403767:	74 19                	je     403782 <runtime.(*waitq).enqueue+0x72>
  403769:	48 83 04 24 08       	addq   $0x8,(%rsp)
  40376e:	48 8b 5c 24 20       	mov    0x20(%rsp),%rbx
  403773:	48 89 5c 24 08       	mov    %rbx,0x8(%rsp)
  403778:	e8 f3 44 00 00       	callq  407c70 <runtime.writebarrierptr>
  40377d:	48 83 c4 10          	add    $0x10,%rsp
  403781:	c3                   	retq   
  403782:	89 04 25 00 00 00 00 	mov    %eax,0x0
  403789:	eb de                	jmp    403769 <runtime.(*waitq).enqueue+0x59>
  40378b:	89 04 25 00 00 00 00 	mov    %eax,0x0
  403792:	eb bb                	jmp    40374f <runtime.(*waitq).enqueue+0x3f>
  403794:	48 8b 68 08          	mov    0x8(%rax),%rbp
  403798:	48 89 2c 24          	mov    %rbp,(%rsp)
  40379c:	48 83 3c 24 00       	cmpq   $0x0,(%rsp)
  4037a1:	74 41                	je     4037e4 <runtime.(*waitq).enqueue+0xd4>
  4037a3:	48 83 04 24 10       	addq   $0x10,(%rsp)
  4037a8:	48 89 4c 24 08       	mov    %rcx,0x8(%rsp)
  4037ad:	e8 be 44 00 00       	callq  407c70 <runtime.writebarrierptr>
  4037b2:	48 8b 5c 24 18       	mov    0x18(%rsp),%rbx
  4037b7:	48 89 1c 24          	mov    %rbx,(%rsp)
  4037bb:	48 83 3c 24 00       	cmpq   $0x0,(%rsp)
  4037c0:	74 19                	je     4037db <runtime.(*waitq).enqueue+0xcb>
  4037c2:	48 83 04 24 08       	addq   $0x8,(%rsp)
  4037c7:	48 8b 5c 24 20       	mov    0x20(%rsp),%rbx
  4037cc:	48 89 5c 24 08       	mov    %rbx,0x8(%rsp)
  4037d1:	e8 9a 44 00 00       	callq  407c70 <runtime.writebarrierptr>
  4037d6:	48 83 c4 10          	add    $0x10,%rsp
  4037da:	c3                   	retq   
  4037db:	89 04 25 00 00 00 00 	mov    %eax,0x0
  4037e2:	eb de                	jmp    4037c2 <runtime.(*waitq).enqueue+0xb2>
  4037e4:	89 04 25 00 00 00 00 	mov    %eax,0x0
  4037eb:	eb b6                	jmp    4037a3 <runtime.(*waitq).enqueue+0x93>
  4037ed:	00 00                	add    %al,(%rax)
	...

00000000004037f0 <runtime.(*waitq).dequeue>:
  4037f0:	64 48 8b 0c 25 f0 ff 	mov    %fs:0xfffffffffffffff0,%rcx
  4037f7:	ff ff 
  4037f9:	48 3b 61 10          	cmp    0x10(%rcx),%rsp
  4037fd:	77 07                	ja     403806 <runtime.(*waitq).dequeue+0x16>
  4037ff:	e8 4c 93 02 00       	callq  42cb50 <runtime.morestack_noctxt>
  403804:	eb ea                	jmp    4037f0 <runtime.(*waitq).dequeue>
  403806:	48 83 ec 20          	sub    $0x20,%rsp
  40380a:	48 8b 54 24 28       	mov    0x28(%rsp),%rdx
  40380f:	48 8b 02             	mov    (%rdx),%rax
  403812:	31 ed                	xor    %ebp,%ebp
  403814:	48 39 e8             	cmp    %rbp,%rax
  403817:	75 0e                	jne    403827 <runtime.(*waitq).dequeue+0x37>
  403819:	48 c7 44 24 30 00 00 	movq   $0x0,0x30(%rsp)
  403820:	00 00 
  403822:	48 83 c4 20          	add    $0x20,%rsp
  403826:	c3                   	retq   
  403827:	48 89 14 24          	mov    %rdx,(%rsp)
  40382b:	48 83 3c 24 00       	cmpq   $0x0,(%rsp)
  403830:	0f 84 89 00 00 00    	je     4038bf <runtime.(*waitq).dequeue+0xcf>
  403836:	48 89 44 24 18       	mov    %rax,0x18(%rsp)
  40383b:	48 8b 68 10          	mov    0x10(%rax),%rbp
  40383f:	48 89 6c 24 08       	mov    %rbp,0x8(%rsp)
  403844:	e8 27 44 00 00       	callq  407c70 <runtime.writebarrierptr>
  403849:	48 8b 54 24 28       	mov    0x28(%rsp),%rdx
  40384e:	48 8b 44 24 18       	mov    0x18(%rsp),%rax
  403853:	31 ed                	xor    %ebp,%ebp
  403855:	48 89 68 10          	mov    %rbp,0x10(%rax)
  403859:	48 8b 5a 08          	mov    0x8(%rdx),%rbx
  40385d:	48 39 c3             	cmp    %rax,%rbx
  403860:	75 06                	jne    403868 <runtime.(*waitq).dequeue+0x78>
  403862:	31 ed                	xor    %ebp,%ebp
  403864:	48 89 6a 08          	mov    %rbp,0x8(%rdx)
  403868:	48 8b 58 08          	mov    0x8(%rax),%rbx
  40386c:	31 ed                	xor    %ebp,%ebp
  40386e:	48 39 eb             	cmp    %rbp,%rbx
  403871:	74 3d                	je     4038b0 <runtime.(*waitq).dequeue+0xc0>
  403873:	48 8b 68 08          	mov    0x8(%rax),%rbp
  403877:	8b 5d 00             	mov    0x0(%rbp),%ebx
  40387a:	83 fb 00             	cmp    $0x0,%ebx
  40387d:	75 3b                	jne    4038ba <runtime.(*waitq).dequeue+0xca>
  40387f:	48 8b 68 08          	mov    0x8(%rax),%rbp
  403883:	48 89 2c 24          	mov    %rbp,(%rsp)
  403887:	c7 44 24 08 00 00 00 	movl   $0x0,0x8(%rsp)
  40388e:	00 
  40388f:	c7 44 24 0c 01 00 00 	movl   $0x1,0xc(%rsp)
  403896:	00 
  403897:	e8 94 a4 02 00       	callq  42dd30 <runtime.cas>
  40389c:	48 8b 54 24 28       	mov    0x28(%rsp),%rdx
  4038a1:	48 8b 44 24 18       	mov    0x18(%rsp),%rax
  4038a6:	0f b6 5c 24 10       	movzbl 0x10(%rsp),%ebx
  4038ab:	80 fb 00             	cmp    $0x0,%bl
  4038ae:	74 0a                	je     4038ba <runtime.(*waitq).dequeue+0xca>
  4038b0:	48 89 44 24 30       	mov    %rax,0x30(%rsp)
  4038b5:	48 83 c4 20          	add    $0x20,%rsp
  4038b9:	c3                   	retq   
  4038ba:	e9 50 ff ff ff       	jmpq   40380f <runtime.(*waitq).dequeue+0x1f>
  4038bf:	89 04 25 00 00 00 00 	mov    %eax,0x0
  4038c6:	e9 6b ff ff ff       	jmpq   403836 <runtime.(*waitq).dequeue+0x46>
  4038cb:	00 00                	add    %al,(%rax)
  4038cd:	00 00                	add    %al,(%rax)
	...

00000000004038d0 <runtime.lostProfileData>:
  4038d0:	c3                   	retq   
	...

00000000004038e0 <runtime.cpuproftick>:
  4038e0:	64 48 8b 0c 25 f0 ff 	mov    %fs:0xfffffffffffffff0,%rcx
  4038e7:	ff ff 
  4038e9:	48 3b 61 10          	cmp    0x10(%rcx),%rsp
  4038ed:	77 07                	ja     4038f6 <runtime.cpuproftick+0x16>
  4038ef:	e8 5c 92 02 00       	callq  42cb50 <runtime.morestack_noctxt>
  4038f4:	eb ea                	jmp    4038e0 <runtime.cpuproftick>
  4038f6:	48 83 ec 38          	sub    $0x38,%rsp
  4038fa:	8b 4c 24 48          	mov    0x48(%rsp),%ecx
  4038fe:	83 f9 40             	cmp    $0x40,%ecx
  403901:	7e 05                	jle    403908 <runtime.cpuproftick+0x28>
  403903:	b9 40 00 00 00       	mov    $0x40,%ecx
  403908:	48 8b 44 24 40       	mov    0x40(%rsp),%rax
  40390d:	48 63 d9             	movslq %ecx,%rbx
  403910:	89 4c 24 48          	mov    %ecx,0x48(%rsp)
  403914:	48 83 fb 40          	cmp    $0x40,%rbx
  403918:	77 47                	ja     403961 <runtime.cpuproftick+0x81>
  40391a:	48 83 f8 00          	cmp    $0x0,%rax
  40391e:	74 3d                	je     40395d <runtime.cpuproftick+0x7d>
  403920:	48 89 da             	mov    %rbx,%rdx
  403923:	48 8b 1d ce 39 06 00 	mov    0x639ce(%rip),%rbx        # 4672f8 <runtime.cpuprof>
  40392a:	48 c7 c1 40 00 00 00 	mov    $0x40,%rcx
  403931:	48 89 1c 24          	mov    %rbx,(%rsp)
  403935:	48 89 44 24 20       	mov    %rax,0x20(%rsp)
  40393a:	48 89 44 24 08       	mov    %rax,0x8(%rsp)
  40393f:	48 89 54 24 28       	mov    %rdx,0x28(%rsp)
  403944:	48 89 54 24 10       	mov    %rdx,0x10(%rsp)
  403949:	48 89 4c 24 30       	mov    %rcx,0x30(%rsp)
  40394e:	48 89 4c 24 18       	mov    %rcx,0x18(%rsp)
  403953:	e8 18 00 00 00       	callq  403970 <runtime.(*cpuProfile).add>
  403958:	48 83 c4 38          	add    $0x38,%rsp
  40395c:	c3                   	retq   
  40395d:	89 00                	mov    %eax,(%rax)
  40395f:	eb bf                	jmp    403920 <runtime.cpuproftick+0x40>
  403961:	e8 9a 5a 00 00       	callq  409400 <runtime.panicslice>
  403966:	0f 0b                	ud2    
	...

0000000000403970 <runtime.(*cpuProfile).add>:
  403970:	64 48 8b 0c 25 f0 ff 	mov    %fs:0xfffffffffffffff0,%rcx
  403977:	ff ff 
  403979:	48 3b 61 10          	cmp    0x10(%rcx),%rsp
  40397d:	77 07                	ja     403986 <runtime.(*cpuProfile).add+0x16>
  40397f:	e8 cc 91 02 00       	callq  42cb50 <runtime.morestack_noctxt>
  403984:	eb ea                	jmp    403970 <runtime.(*cpuProfile).add>
  403986:	48 83 ec 50          	sub    $0x50,%rsp
  40398a:	4c 8b 74 24 58       	mov    0x58(%rsp),%r14
  40398f:	48 8b 4c 24 60       	mov    0x60(%rsp),%rcx
  403994:	4c 8b 44 24 68       	mov    0x68(%rsp),%r8
  403999:	31 f6                	xor    %esi,%esi
  40399b:	48 8b 5c 24 70       	mov    0x70(%rsp),%rbx
  4039a0:	31 d2                	xor    %edx,%edx
  4039a2:	4c 89 c7             	mov    %r8,%rdi
  4039a5:	49 89 cc             	mov    %rcx,%r12
  4039a8:	4c 39 c2             	cmp    %r8,%rdx
  4039ab:	7d 34                	jge    4039e1 <runtime.(*cpuProfile).add+0x71>
  4039ad:	48 8b 19             	mov    (%rcx),%rbx
  4039b0:	48 c1 c6 08          	rol    $0x8,%rsi
  4039b4:	48 89 dd             	mov    %rbx,%rbp
  4039b7:	48 6b db 1f          	imul   $0x1f,%rbx,%rbx
  4039bb:	48 89 e8             	mov    %rbp,%rax
  4039be:	48 6b ed 07          	imul   $0x7,%rbp,%rbp
  4039c2:	48 01 eb             	add    %rbp,%rbx
  4039c5:	48 89 c5             	mov    %rax,%rbp
  4039c8:	48 6b ed 03          	imul   $0x3,%rbp,%rbp
  4039cc:	48 01 eb             	add    %rbp,%rbx
  4039cf:	48 01 f3             	add    %rsi,%rbx
  4039d2:	48 89 de             	mov    %rbx,%rsi
  4039d5:	48 83 c1 08          	add    $0x8,%rcx
  4039d9:	48 ff c2             	inc    %rdx
  4039dc:	4c 39 c2             	cmp    %r8,%rdx
  4039df:	7c cc                	jl     4039ad <runtime.(*cpuProfile).add+0x3d>
  4039e1:	4d 8b 56 10          	mov    0x10(%r14),%r10
  4039e5:	49 ff c2             	inc    %r10
  4039e8:	4d 89 56 10          	mov    %r10,0x10(%r14)
  4039ec:	48 89 f3             	mov    %rsi,%rbx
  4039ef:	48 81 e3 ff 03 00 00 	and    $0x3ff,%rbx
  4039f6:	4d 8d 56 28          	lea    0x28(%r14),%r10
  4039fa:	48 69 db 40 08 00 00 	imul   $0x840,%rbx,%rbx
  403a01:	49 01 da             	add    %rbx,%r10
  403a04:	31 f6                	xor    %esi,%esi
  403a06:	49 c7 c5 04 00 00 00 	mov    $0x4,%r13
  403a0d:	4c 39 ee             	cmp    %r13,%rsi
  403a10:	7d 3c                	jge    403a4e <runtime.(*cpuProfile).add+0xde>
  403a12:	49 83 fa 00          	cmp    $0x0,%r10
  403a16:	0f 84 fe 01 00 00    	je     403c1a <runtime.(*cpuProfile).add+0x2aa>
  403a1c:	49 8d 2a             	lea    (%r10),%rbp
  403a1f:	48 89 f3             	mov    %rsi,%rbx
  403a22:	48 83 fe 04          	cmp    $0x4,%rsi
  403a26:	0f 83 e7 01 00 00    	jae    403c13 <runtime.(*cpuProfile).add+0x2a3>
  403a2c:	48 69 db 10 02 00 00 	imul   $0x210,%rbx,%rbx
  403a33:	48 01 dd             	add    %rbx,%rbp
  403a36:	48 89 ea             	mov    %rbp,%rdx
  403a39:	48 8b 5d 08          	mov    0x8(%rbp),%rbx
  403a3d:	48 39 fb             	cmp    %rdi,%rbx
  403a40:	0f 84 6c 01 00 00    	je     403bb2 <runtime.(*cpuProfile).add+0x242>
  403a46:	48 ff c6             	inc    %rsi
  403a49:	4c 39 ee             	cmp    %r13,%rsi
  403a4c:	7c c4                	jl     403a12 <runtime.(*cpuProfile).add+0xa2>
  403a4e:	31 c9                	xor    %ecx,%ecx
  403a50:	31 c0                	xor    %eax,%eax
  403a52:	48 c7 c6 04 00 00 00 	mov    $0x4,%rsi
  403a59:	48 39 f0             	cmp    %rsi,%rax
  403a5c:	7d 49                	jge    403aa7 <runtime.(*cpuProfile).add+0x137>
  403a5e:	48 89 c2             	mov    %rax,%rdx
  403a61:	31 ed                	xor    %ebp,%ebp
  403a63:	48 39 e9             	cmp    %rbp,%rcx
  403a66:	0f 84 07 01 00 00    	je     403b73 <runtime.(*cpuProfile).add+0x203>
  403a6c:	49 83 fa 00          	cmp    $0x0,%r10
  403a70:	0f 84 34 01 00 00    	je     403baa <runtime.(*cpuProfile).add+0x23a>
  403a76:	4d 8d 02             	lea    (%r10),%r8
  403a79:	49 89 d1             	mov    %rdx,%r9
  403a7c:	48 83 fa 04          	cmp    $0x4,%rdx
  403a80:	0f 83 1d 01 00 00    	jae    403ba3 <runtime.(*cpuProfile).add+0x233>
  403a86:	4d 69 c9 10 02 00 00 	imul   $0x210,%r9,%r9
  403a8d:	4d 01 c8             	add    %r9,%r8
  403a90:	49 8b 18             	mov    (%r8),%rbx
  403a93:	48 8b 29             	mov    (%rcx),%rbp
  403a96:	48 39 eb             	cmp    %rbp,%rbx
  403a99:	0f 82 d4 00 00 00    	jb     403b73 <runtime.(*cpuProfile).add+0x203>
  403a9f:	48 ff c0             	inc    %rax
  403aa2:	48 39 f0             	cmp    %rsi,%rax
  403aa5:	7c b7                	jl     403a5e <runtime.(*cpuProfile).add+0xee>
  403aa7:	48 8b 19             	mov    (%rcx),%rbx
  403aaa:	48 83 fb 00          	cmp    $0x0,%rbx
  403aae:	76 4c                	jbe    403afc <runtime.(*cpuProfile).add+0x18c>
  403ab0:	4c 89 34 24          	mov    %r14,(%rsp)
  403ab4:	48 89 4c 24 18       	mov    %rcx,0x18(%rsp)
  403ab9:	48 89 4c 24 08       	mov    %rcx,0x8(%rsp)
  403abe:	e8 6d 01 00 00       	callq  403c30 <runtime.(*cpuProfile).evict>
  403ac3:	48 8b 44 24 58       	mov    0x58(%rsp),%rax
  403ac8:	4c 8b 64 24 60       	mov    0x60(%rsp),%r12
  403acd:	48 8b 7c 24 68       	mov    0x68(%rsp),%rdi
  403ad2:	48 8b 4c 24 18       	mov    0x18(%rsp),%rcx
  403ad7:	0f b6 5c 24 10       	movzbl 0x10(%rsp),%ebx
  403adc:	80 fb 00             	cmp    $0x0,%bl
  403adf:	75 10                	jne    403af1 <runtime.(*cpuProfile).add+0x181>
  403ae1:	48 8b 68 20          	mov    0x20(%rax),%rbp
  403ae5:	48 ff c5             	inc    %rbp
  403ae8:	48 89 68 20          	mov    %rbp,0x20(%rax)
  403aec:	48 83 c4 50          	add    $0x50,%rsp
  403af0:	c3                   	retq   
  403af1:	48 8b 68 18          	mov    0x18(%rax),%rbp
  403af5:	48 ff c5             	inc    %rbp
  403af8:	48 89 68 18          	mov    %rbp,0x18(%rax)
  403afc:	48 89 79 08          	mov    %rdi,0x8(%rcx)
  403b00:	48 c7 01 01 00 00 00 	movq   $0x1,(%rcx)
  403b07:	48 89 ce             	mov    %rcx,%rsi
  403b0a:	48 83 c6 10          	add    $0x10,%rsi
  403b0e:	48 83 fe 00          	cmp    $0x0,%rsi
  403b12:	74 5b                	je     403b6f <runtime.(*cpuProfile).add+0x1ff>
  403b14:	48 c7 c0 40 00 00 00 	mov    $0x40,%rax
  403b1b:	48 c7 c1 40 00 00 00 	mov    $0x40,%rcx
  403b22:	48 89 4c 24 48       	mov    %rcx,0x48(%rsp)
  403b27:	48 8b 5c 24 70       	mov    0x70(%rsp),%rbx
  403b2c:	4c 89 e2             	mov    %r12,%rdx
  403b2f:	48 89 5c 24 30       	mov    %rbx,0x30(%rsp)
  403b34:	48 89 44 24 40       	mov    %rax,0x40(%rsp)
  403b39:	48 89 7c 24 28       	mov    %rdi,0x28(%rsp)
  403b3e:	48 39 c7             	cmp    %rax,%rdi
  403b41:	7d 03                	jge    403b46 <runtime.(*cpuProfile).add+0x1d6>
  403b43:	48 89 f8             	mov    %rdi,%rax
  403b46:	48 89 74 24 38       	mov    %rsi,0x38(%rsp)
  403b4b:	48 89 34 24          	mov    %rsi,(%rsp)
  403b4f:	48 89 54 24 20       	mov    %rdx,0x20(%rsp)
  403b54:	48 89 54 24 08       	mov    %rdx,0x8(%rsp)
  403b59:	48 89 c3             	mov    %rax,%rbx
  403b5c:	48 c1 e3 03          	shl    $0x3,%rbx
  403b60:	48 89 5c 24 10       	mov    %rbx,0x10(%rsp)
  403b65:	e8 76 b2 02 00       	callq  42ede0 <runtime.memmove>
  403b6a:	48 83 c4 50          	add    $0x50,%rsp
  403b6e:	c3                   	retq   
  403b6f:	89 06                	mov    %eax,(%rsi)
  403b71:	eb a1                	jmp    403b14 <runtime.(*cpuProfile).add+0x1a4>
  403b73:	49 83 fa 00          	cmp    $0x0,%r10
  403b77:	74 25                	je     403b9e <runtime.(*cpuProfile).add+0x22e>
  403b79:	49 8d 2a             	lea    (%r10),%rbp
  403b7c:	48 89 d3             	mov    %rdx,%rbx
  403b7f:	48 83 fa 04          	cmp    $0x4,%rdx
  403b83:	73 12                	jae    403b97 <runtime.(*cpuProfile).add+0x227>
  403b85:	48 69 db 10 02 00 00 	imul   $0x210,%rbx,%rbx
  403b8c:	48 01 dd             	add    %rbx,%rbp
  403b8f:	48 89 e9             	mov    %rbp,%rcx
  403b92:	e9 08 ff ff ff       	jmpq   403a9f <runtime.(*cpuProfile).add+0x12f>
  403b97:	e8 14 58 00 00       	callq  4093b0 <runtime.panicindex>
  403b9c:	0f 0b                	ud2    
  403b9e:	41 89 02             	mov    %eax,(%r10)
  403ba1:	eb d6                	jmp    403b79 <runtime.(*cpuProfile).add+0x209>
  403ba3:	e8 08 58 00 00       	callq  4093b0 <runtime.panicindex>
  403ba8:	0f 0b                	ud2    
  403baa:	41 89 02             	mov    %eax,(%r10)
  403bad:	e9 c4 fe ff ff       	jmpq   403a76 <runtime.(*cpuProfile).add+0x106>
  403bb2:	31 c0                	xor    %eax,%eax
  403bb4:	49 89 fb             	mov    %rdi,%r11
  403bb7:	4c 39 d8             	cmp    %r11,%rax
  403bba:	7d 37                	jge    403bf3 <runtime.(*cpuProfile).add+0x283>
  403bbc:	48 83 fa 00          	cmp    $0x0,%rdx
  403bc0:	74 4d                	je     403c0f <runtime.(*cpuProfile).add+0x29f>
  403bc2:	48 8d 6a 10          	lea    0x10(%rdx),%rbp
  403bc6:	48 83 f8 40          	cmp    $0x40,%rax
  403bca:	73 3c                	jae    403c08 <runtime.(*cpuProfile).add+0x298>
  403bcc:	48 8d 6c c5 00       	lea    0x0(%rbp,%rax,8),%rbp
  403bd1:	48 8b 5d 00          	mov    0x0(%rbp),%rbx
  403bd5:	48 39 f8             	cmp    %rdi,%rax
  403bd8:	73 27                	jae    403c01 <runtime.(*cpuProfile).add+0x291>
  403bda:	49 8d 2c c4          	lea    (%r12,%rax,8),%rbp
  403bde:	48 8b 6d 00          	mov    0x0(%rbp),%rbp
  403be2:	48 39 eb             	cmp    %rbp,%rbx
  403be5:	0f 85 5b fe ff ff    	jne    403a46 <runtime.(*cpuProfile).add+0xd6>
  403beb:	48 ff c0             	inc    %rax
  403bee:	4c 39 d8             	cmp    %r11,%rax
  403bf1:	7c c9                	jl     403bbc <runtime.(*cpuProfile).add+0x24c>
  403bf3:	48 8b 2a             	mov    (%rdx),%rbp
  403bf6:	48 ff c5             	inc    %rbp
  403bf9:	48 89 2a             	mov    %rbp,(%rdx)
  403bfc:	48 83 c4 50          	add    $0x50,%rsp
  403c00:	c3                   	retq   
  403c01:	e8 aa 57 00 00       	callq  4093b0 <runtime.panicindex>
  403c06:	0f 0b                	ud2    
  403c08:	e8 a3 57 00 00       	callq  4093b0 <runtime.panicindex>
  403c0d:	0f 0b                	ud2    
  403c0f:	89 02                	mov    %eax,(%rdx)
  403c11:	eb af                	jmp    403bc2 <runtime.(*cpuProfile).add+0x252>
  403c13:	e8 98 57 00 00       	callq  4093b0 <runtime.panicindex>
  403c18:	0f 0b                	ud2    
  403c1a:	41 89 02             	mov    %eax,(%r10)
  403c1d:	e9 fa fd ff ff       	jmpq   403a1c <runtime.(*cpuProfile).add+0xac>
	...

0000000000403c30 <runtime.(*cpuProfile).evict>:
  403c30:	64 48 8b 0c 25 f0 ff 	mov    %fs:0xfffffffffffffff0,%rcx
  403c37:	ff ff 
  403c39:	48 3b 61 10          	cmp    0x10(%rcx),%rsp
  403c3d:	77 07                	ja     403c46 <runtime.(*cpuProfile).evict+0x16>
  403c3f:	e8 0c 8f 02 00       	callq  42cb50 <runtime.morestack_noctxt>
  403c44:	eb ea                	jmp    403c30 <runtime.(*cpuProfile).evict>
  403c46:	48 83 ec 58          	sub    $0x58,%rsp
  403c4a:	48 8b 7c 24 68       	mov    0x68(%rsp),%rdi
  403c4f:	48 8b 4c 24 60       	mov    0x60(%rsp),%rcx
  403c54:	48 8b 57 08          	mov    0x8(%rdi),%rdx
  403c58:	48 89 d6             	mov    %rdx,%rsi
  403c5b:	48 89 54 24 20       	mov    %rdx,0x20(%rsp)
  403c60:	48 83 c2 02          	add    $0x2,%rdx
  403c64:	48 83 f9 00          	cmp    $0x0,%rcx
  403c68:	0f 84 12 02 00 00    	je     403e80 <runtime.(*cpuProfile).evict+0x250>
  403c6e:	8b 81 30 00 31 00    	mov    0x310030(%rcx),%eax
  403c74:	48 8d a9 28 00 21 00 	lea    0x210028(%rcx),%rbp
  403c7b:	48 63 d8             	movslq %eax,%rbx
  403c7e:	48 83 fb 02          	cmp    $0x2,%rbx
  403c82:	0f 83 f1 01 00 00    	jae    403e79 <runtime.(*cpuProfile).evict+0x249>
  403c88:	48 69 db 00 00 08 00 	imul   $0x80000,%rbx,%rbx
  403c8f:	48 01 dd             	add    %rbx,%rbp
  403c92:	48 89 e8             	mov    %rbp,%rax
  403c95:	48 8b 99 28 00 31 00 	mov    0x310028(%rcx),%rbx
  403c9c:	48 01 d3             	add    %rdx,%rbx
  403c9f:	48 81 fb 00 00 01 00 	cmp    $0x10000,%rbx
  403ca6:	76 5d                	jbe    403d05 <runtime.(*cpuProfile).evict+0xd5>
  403ca8:	48 89 0c 24          	mov    %rcx,(%rsp)
  403cac:	e8 df 01 00 00       	callq  403e90 <runtime.(*cpuProfile).flushlog>
  403cb1:	48 8b 7c 24 68       	mov    0x68(%rsp),%rdi
  403cb6:	48 8b 74 24 20       	mov    0x20(%rsp),%rsi
  403cbb:	48 8b 4c 24 60       	mov    0x60(%rsp),%rcx
  403cc0:	0f b6 5c 24 08       	movzbl 0x8(%rsp),%ebx
  403cc5:	80 fb 00             	cmp    $0x0,%bl
  403cc8:	75 0a                	jne    403cd4 <runtime.(*cpuProfile).evict+0xa4>
  403cca:	c6 44 24 70 00       	movb   $0x0,0x70(%rsp)
  403ccf:	48 83 c4 58          	add    $0x58,%rsp
  403cd3:	c3                   	retq   
  403cd4:	48 83 f9 00          	cmp    $0x0,%rcx
  403cd8:	0f 84 94 01 00 00    	je     403e72 <runtime.(*cpuProfile).evict+0x242>
  403cde:	8b 81 30 00 31 00    	mov    0x310030(%rcx),%eax
  403ce4:	48 8d a9 28 00 21 00 	lea    0x210028(%rcx),%rbp
  403ceb:	48 63 d8             	movslq %eax,%rbx
  403cee:	48 83 fb 02          	cmp    $0x2,%rbx
  403cf2:	0f 83 73 01 00 00    	jae    403e6b <runtime.(*cpuProfile).evict+0x23b>
  403cf8:	48 69 db 00 00 08 00 	imul   $0x80000,%rbx,%rbx
  403cff:	48 01 dd             	add    %rbx,%rbp
  403d02:	48 89 e8             	mov    %rbp,%rax
  403d05:	48 83 f9 00          	cmp    $0x0,%rcx
  403d09:	0f 84 55 01 00 00    	je     403e64 <runtime.(*cpuProfile).evict+0x234>
  403d0f:	48 8b 89 28 00 31 00 	mov    0x310028(%rcx),%rcx
  403d16:	48 83 f8 00          	cmp    $0x0,%rax
  403d1a:	0f 84 3d 01 00 00    	je     403e5d <runtime.(*cpuProfile).evict+0x22d>
  403d20:	48 81 f9 00 00 01 00 	cmp    $0x10000,%rcx
  403d27:	0f 83 29 01 00 00    	jae    403e56 <runtime.(*cpuProfile).evict+0x226>
  403d2d:	48 8d 1c c8          	lea    (%rax,%rcx,8),%rbx
  403d31:	4c 8b 07             	mov    (%rdi),%r8
  403d34:	4c 89 03             	mov    %r8,(%rbx)
  403d37:	48 ff c1             	inc    %rcx
  403d3a:	48 81 f9 00 00 01 00 	cmp    $0x10000,%rcx
  403d41:	0f 83 08 01 00 00    	jae    403e4f <runtime.(*cpuProfile).evict+0x21f>
  403d47:	48 8d 1c c8          	lea    (%rax,%rcx,8),%rbx
  403d4b:	48 89 33             	mov    %rsi,(%rbx)
  403d4e:	48 ff c1             	inc    %rcx
  403d51:	48 89 4c 24 18       	mov    %rcx,0x18(%rsp)
  403d56:	48 81 f9 00 00 01 00 	cmp    $0x10000,%rcx
  403d5d:	0f 87 e5 00 00 00    	ja     403e48 <runtime.(*cpuProfile).evict+0x218>
  403d63:	49 89 c8             	mov    %rcx,%r8
  403d66:	48 89 fa             	mov    %rdi,%rdx
  403d69:	48 83 c2 10          	add    $0x10,%rdx
  403d6d:	48 83 fe 40          	cmp    $0x40,%rsi
  403d71:	0f 87 ca 00 00 00    	ja     403e41 <runtime.(*cpuProfile).evict+0x211>
  403d77:	48 c7 c7 00 00 01 00 	mov    $0x10000,%rdi
  403d7e:	48 29 cf             	sub    %rcx,%rdi
  403d81:	48 c7 c3 00 00 01 00 	mov    $0x10000,%rbx
  403d88:	48 29 cb             	sub    %rcx,%rbx
  403d8b:	48 89 d9             	mov    %rbx,%rcx
  403d8e:	48 83 fb 00          	cmp    $0x0,%rbx
  403d92:	74 0d                	je     403da1 <runtime.(*cpuProfile).evict+0x171>
  403d94:	4c 89 c3             	mov    %r8,%rbx
  403d97:	48 c1 e3 03          	shl    $0x3,%rbx
  403d9b:	48 01 c3             	add    %rax,%rbx
  403d9e:	48 89 d8             	mov    %rbx,%rax
  403da1:	49 89 c0             	mov    %rax,%r8
  403da4:	48 89 4c 24 50       	mov    %rcx,0x50(%rsp)
  403da9:	48 89 d0             	mov    %rdx,%rax
  403dac:	48 83 fa 00          	cmp    $0x0,%rdx
  403db0:	0f 84 84 00 00 00    	je     403e3a <runtime.(*cpuProfile).evict+0x20a>
  403db6:	48 89 f1             	mov    %rsi,%rcx
  403db9:	48 c7 c2 40 00 00 00 	mov    $0x40,%rdx
  403dc0:	48 89 c6             	mov    %rax,%rsi
  403dc3:	48 89 54 24 38       	mov    %rdx,0x38(%rsp)
  403dc8:	48 89 7c 24 48       	mov    %rdi,0x48(%rsp)
  403dcd:	48 89 f8             	mov    %rdi,%rax
  403dd0:	48 89 4c 24 30       	mov    %rcx,0x30(%rsp)
  403dd5:	48 39 f9             	cmp    %rdi,%rcx
  403dd8:	7d 03                	jge    403ddd <runtime.(*cpuProfile).evict+0x1ad>
  403dda:	48 89 c8             	mov    %rcx,%rax
  403ddd:	4c 89 44 24 40       	mov    %r8,0x40(%rsp)
  403de2:	4c 89 04 24          	mov    %r8,(%rsp)
  403de6:	48 89 74 24 28       	mov    %rsi,0x28(%rsp)
  403deb:	48 89 74 24 08       	mov    %rsi,0x8(%rsp)
  403df0:	48 89 c3             	mov    %rax,%rbx
  403df3:	48 c1 e3 03          	shl    $0x3,%rbx
  403df7:	48 89 5c 24 10       	mov    %rbx,0x10(%rsp)
  403dfc:	e8 df af 02 00       	callq  42ede0 <runtime.memmove>
  403e01:	48 8b 44 24 18       	mov    0x18(%rsp),%rax
  403e06:	48 8b 6c 24 20       	mov    0x20(%rsp),%rbp
  403e0b:	48 01 e8             	add    %rbp,%rax
  403e0e:	48 8b 5c 24 60       	mov    0x60(%rsp),%rbx
  403e13:	48 83 fb 00          	cmp    $0x0,%rbx
  403e17:	74 1d                	je     403e36 <runtime.(*cpuProfile).evict+0x206>
  403e19:	48 89 83 28 00 31 00 	mov    %rax,0x310028(%rbx)
  403e20:	48 8b 5c 24 68       	mov    0x68(%rsp),%rbx
  403e25:	48 c7 03 00 00 00 00 	movq   $0x0,(%rbx)
  403e2c:	c6 44 24 70 01       	movb   $0x1,0x70(%rsp)
  403e31:	48 83 c4 58          	add    $0x58,%rsp
  403e35:	c3                   	retq   
  403e36:	89 03                	mov    %eax,(%rbx)
  403e38:	eb df                	jmp    403e19 <runtime.(*cpuProfile).evict+0x1e9>
  403e3a:	89 02                	mov    %eax,(%rdx)
  403e3c:	e9 75 ff ff ff       	jmpq   403db6 <runtime.(*cpuProfile).evict+0x186>
  403e41:	e8 ba 55 00 00       	callq  409400 <runtime.panicslice>
  403e46:	0f 0b                	ud2    
  403e48:	e8 b3 55 00 00       	callq  409400 <runtime.panicslice>
  403e4d:	0f 0b                	ud2    
  403e4f:	e8 5c 55 00 00       	callq  4093b0 <runtime.panicindex>
  403e54:	0f 0b                	ud2    
  403e56:	e8 55 55 00 00       	callq  4093b0 <runtime.panicindex>
  403e5b:	0f 0b                	ud2    
  403e5d:	89 00                	mov    %eax,(%rax)
  403e5f:	e9 bc fe ff ff       	jmpq   403d20 <runtime.(*cpuProfile).evict+0xf0>
  403e64:	89 01                	mov    %eax,(%rcx)
  403e66:	e9 a4 fe ff ff       	jmpq   403d0f <runtime.(*cpuProfile).evict+0xdf>
  403e6b:	e8 40 55 00 00       	callq  4093b0 <runtime.panicindex>
  403e70:	0f 0b                	ud2    
  403e72:	89 01                	mov    %eax,(%rcx)
  403e74:	e9 65 fe ff ff       	jmpq   403cde <runtime.(*cpuProfile).evict+0xae>
  403e79:	e8 32 55 00 00       	callq  4093b0 <runtime.panicindex>
  403e7e:	0f 0b                	ud2    
  403e80:	89 01                	mov    %eax,(%rcx)
  403e82:	e9 e7 fd ff ff       	jmpq   403c6e <runtime.(*cpuProfile).evict+0x3e>
	...

0000000000403e90 <runtime.(*cpuProfile).flushlog>:
  403e90:	64 48 8b 0c 25 f0 ff 	mov    %fs:0xfffffffffffffff0,%rcx
  403e97:	ff ff 
  403e99:	48 3b 61 10          	cmp    0x10(%rcx),%rsp
  403e9d:	77 07                	ja     403ea6 <runtime.(*cpuProfile).flushlog+0x16>
  403e9f:	e8 ac 8c 02 00       	callq  42cb50 <runtime.morestack_noctxt>
  403ea4:	eb ea                	jmp    403e90 <runtime.(*cpuProfile).flushlog>
  403ea6:	48 83 ec 30          	sub    $0x30,%rsp
  403eaa:	48 8b 44 24 38       	mov    0x38(%rsp),%rax
  403eaf:	48 89 04 24          	mov    %rax,(%rsp)
  403eb3:	48 83 3c 24 00       	cmpq   $0x0,(%rsp)
  403eb8:	0f 84 55 01 00 00    	je     404013 <runtime.(*cpuProfile).flushlog+0x183>
  403ebe:	48 81 04 24 34 00 31 	addq   $0x310034,(%rsp)
  403ec5:	00 
  403ec6:	c7 44 24 08 00 00 00 	movl   $0x0,0x8(%rsp)
  403ecd:	00 
  403ece:	48 83 f8 00          	cmp    $0x0,%rax
  403ed2:	0f 84 34 01 00 00    	je     40400c <runtime.(*cpuProfile).flushlog+0x17c>
  403ed8:	48 8b 98 28 00 31 00 	mov    0x310028(%rax),%rbx
  403edf:	89 db                	mov    %ebx,%ebx
  403ee1:	89 5c 24 0c          	mov    %ebx,0xc(%rsp)
  403ee5:	e8 46 9e 02 00       	callq  42dd30 <runtime.cas>
  403eea:	0f b6 5c 24 10       	movzbl 0x10(%rsp),%ebx
  403eef:	80 fb 00             	cmp    $0x0,%bl
  403ef2:	75 0a                	jne    403efe <runtime.(*cpuProfile).flushlog+0x6e>
  403ef4:	c6 44 24 40 00       	movb   $0x0,0x40(%rsp)
  403ef9:	48 83 c4 30          	add    $0x30,%rsp
  403efd:	c3                   	retq   
  403efe:	48 8b 5c 24 38       	mov    0x38(%rsp),%rbx
  403f03:	48 89 1c 24          	mov    %rbx,(%rsp)
  403f07:	48 83 3c 24 00       	cmpq   $0x0,(%rsp)
  403f0c:	0f 84 ee 00 00 00    	je     404000 <runtime.(*cpuProfile).flushlog+0x170>
  403f12:	48 83 04 24 08       	addq   $0x8,(%rsp)
  403f17:	e8 54 23 00 00       	callq  406270 <runtime.notewakeup>
  403f1c:	48 8b 44 24 38       	mov    0x38(%rsp),%rax
  403f21:	48 83 f8 00          	cmp    $0x0,%rax
  403f25:	0f 84 ce 00 00 00    	je     403ff9 <runtime.(*cpuProfile).flushlog+0x169>
  403f2b:	8b a8 30 00 31 00    	mov    0x310030(%rax),%ebp
  403f31:	41 b8 01 00 00 00    	mov    $0x1,%r8d
  403f37:	41 29 e8             	sub    %ebp,%r8d
  403f3a:	44 89 80 30 00 31 00 	mov    %r8d,0x310030(%rax)
  403f41:	8b 88 30 00 31 00    	mov    0x310030(%rax),%ecx
  403f47:	48 8d a8 28 00 21 00 	lea    0x210028(%rax),%rbp
  403f4e:	48 63 d9             	movslq %ecx,%rbx
  403f51:	48 83 fb 02          	cmp    $0x2,%rbx
  403f55:	0f 83 97 00 00 00    	jae    403ff2 <runtime.(*cpuProfile).flushlog+0x162>
  403f5b:	48 69 db 00 00 08 00 	imul   $0x80000,%rbx,%rbx
  403f62:	48 01 dd             	add    %rbx,%rbp
  403f65:	48 89 6c 24 18       	mov    %rbp,0x18(%rsp)
  403f6a:	31 c9                	xor    %ecx,%ecx
  403f6c:	48 8b 58 20          	mov    0x20(%rax),%rbx
  403f70:	48 83 fb 00          	cmp    $0x0,%rbx
  403f74:	76 5d                	jbe    403fd3 <runtime.(*cpuProfile).flushlog+0x143>
  403f76:	48 8d 0d e3 77 04 00 	lea    0x477e3(%rip),%rcx        # 44b760 <runtime.lostProfileData.f>
  403f7d:	48 8d 05 dc 1c 03 00 	lea    0x31cdc(%rip),%rax        # 435c60 <runtime.rodata+0x5c60>
  403f84:	48 89 44 24 20       	mov    %rax,0x20(%rsp)
  403f89:	48 89 04 24          	mov    %rax,(%rsp)
  403f8d:	48 89 4c 24 28       	mov    %rcx,0x28(%rsp)
  403f92:	48 89 4c 24 08       	mov    %rcx,0x8(%rsp)
  403f97:	e8 a4 83 00 00       	callq  40c340 <runtime.funcPC>
  403f9c:	48 8b 54 24 18       	mov    0x18(%rsp),%rdx
  403fa1:	48 8b 44 24 38       	mov    0x38(%rsp),%rax
  403fa6:	48 8b 4c 24 10       	mov    0x10(%rsp),%rcx
  403fab:	48 83 fa 00          	cmp    $0x0,%rdx
  403faf:	74 3d                	je     403fee <runtime.(*cpuProfile).flushlog+0x15e>
  403fb1:	4c 8b 40 20          	mov    0x20(%rax),%r8
  403fb5:	4c 89 02             	mov    %r8,(%rdx)
  403fb8:	48 c7 42 08 01 00 00 	movq   $0x1,0x8(%rdx)
  403fbf:	00 
  403fc0:	48 89 4a 10          	mov    %rcx,0x10(%rdx)
  403fc4:	48 c7 c1 03 00 00 00 	mov    $0x3,%rcx
  403fcb:	48 c7 40 20 00 00 00 	movq   $0x0,0x20(%rax)
  403fd2:	00 
  403fd3:	48 83 f8 00          	cmp    $0x0,%rax
  403fd7:	74 11                	je     403fea <runtime.(*cpuProfile).flushlog+0x15a>
  403fd9:	48 89 88 28 00 31 00 	mov    %rcx,0x310028(%rax)
  403fe0:	c6 44 24 40 01       	movb   $0x1,0x40(%rsp)
  403fe5:	48 83 c4 30          	add    $0x30,%rsp
  403fe9:	c3                   	retq   
  403fea:	89 00                	mov    %eax,(%rax)
  403fec:	eb eb                	jmp    403fd9 <runtime.(*cpuProfile).flushlog+0x149>
  403fee:	89 02                	mov    %eax,(%rdx)
  403ff0:	eb bf                	jmp    403fb1 <runtime.(*cpuProfile).flushlog+0x121>
  403ff2:	e8 b9 53 00 00       	callq  4093b0 <runtime.panicindex>
  403ff7:	0f 0b                	ud2    
  403ff9:	89 00                	mov    %eax,(%rax)
  403ffb:	e9 2b ff ff ff       	jmpq   403f2b <runtime.(*cpuProfile).flushlog+0x9b>
  404000:	89 04 25 00 00 00 00 	mov    %eax,0x0
  404007:	e9 06 ff ff ff       	jmpq   403f12 <runtime.(*cpuProfile).flushlog+0x82>
  40400c:	89 00                	mov    %eax,(%rax)
  40400e:	e9 c5 fe ff ff       	jmpq   403ed8 <runtime.(*cpuProfile).flushlog+0x48>
  404013:	89 04 25 00 00 00 00 	mov    %eax,0x0
  40401a:	e9 9f fe ff ff       	jmpq   403ebe <runtime.(*cpuProfile).flushlog+0x2e>
	...

0000000000404020 <runtime.(*cpuProfile).getprofile>:
  404020:	64 48 8b 0c 25 f0 ff 	mov    %fs:0xfffffffffffffff0,%rcx
  404027:	ff ff 
  404029:	48 3b 61 10          	cmp    0x10(%rcx),%rsp
  40402d:	77 07                	ja     404036 <runtime.(*cpuProfile).getprofile+0x16>
  40402f:	e8 1c 8b 02 00       	callq  42cb50 <runtime.morestack_noctxt>
  404034:	eb ea                	jmp    404020 <runtime.(*cpuProfile).getprofile>
  404036:	48 83 ec 70          	sub    $0x70,%rsp
  40403a:	48 8b 44 24 78       	mov    0x78(%rsp),%rax
  40403f:	48 c7 84 24 80 00 00 	movq   $0x0,0x80(%rsp)
  404046:	00 00 00 00 00 
  40404b:	48 c7 84 24 88 00 00 	movq   $0x0,0x88(%rsp)
  404052:	00 00 00 00 00 
  404057:	48 c7 84 24 90 00 00 	movq   $0x0,0x90(%rsp)
  40405e:	00 00 00 00 00 
  404063:	31 ed                	xor    %ebp,%ebp
  404065:	48 39 e8             	cmp    %rbp,%rax
  404068:	75 29                	jne    404093 <runtime.(*cpuProfile).getprofile+0x73>
  40406a:	48 c7 84 24 80 00 00 	movq   $0x0,0x80(%rsp)
  404071:	00 00 00 00 00 
  404076:	48 c7 84 24 88 00 00 	movq   $0x0,0x88(%rsp)
  40407d:	00 00 00 00 00 
  404082:	48 c7 84 24 90 00 00 	movq   $0x0,0x90(%rsp)
  404089:	00 00 00 00 00 
  40408e:	48 83 c4 70          	add    $0x70,%rsp
  404092:	c3                   	retq   
  404093:	48 83 f8 00          	cmp    $0x0,%rax
  404097:	0f 84 e2 05 00 00    	je     40467f <runtime.(*cpuProfile).getprofile+0x65f>
  40409d:	0f b6 98 3c 00 31 00 	movzbl 0x31003c(%rax),%ebx
  4040a4:	80 fb 00             	cmp    $0x0,%bl
  4040a7:	0f 84 d7 03 00 00    	je     404484 <runtime.(*cpuProfile).getprofile+0x464>
  4040ad:	48 83 f8 00          	cmp    $0x0,%rax
  4040b1:	0f 84 b5 05 00 00    	je     40466c <runtime.(*cpuProfile).getprofile+0x64c>
  4040b7:	8b a8 34 00 31 00    	mov    0x310034(%rax),%ebp
  4040bd:	83 fd 00             	cmp    $0x0,%ebp
  4040c0:	75 43                	jne    404105 <runtime.(*cpuProfile).getprofile+0xe5>
  4040c2:	48 8d 1d 97 64 04 00 	lea    0x46497(%rip),%rbx        # 44a560 <go.string.*+0xa478>
  4040c9:	48 8d 2c 24          	lea    (%rsp),%rbp
  4040cd:	48 89 ef             	mov    %rbp,%rdi
  4040d0:	48 89 de             	mov    %rbx,%rsi
  4040d3:	48 a5                	movsq  %ds:(%rsi),%es:(%rdi)
  4040d5:	48 a5                	movsq  %ds:(%rsi),%es:(%rdi)
  4040d7:	e8 34 79 00 00       	callq  40ba10 <runtime.printstring>
  4040dc:	48 c7 84 24 80 00 00 	movq   $0x0,0x80(%rsp)
  4040e3:	00 00 00 00 00 
  4040e8:	48 c7 84 24 88 00 00 	movq   $0x0,0x88(%rsp)
  4040ef:	00 00 00 00 00 
  4040f4:	48 c7 84 24 90 00 00 	movq   $0x0,0x90(%rsp)
  4040fb:	00 00 00 00 00 
  404100:	48 83 c4 70          	add    $0x70,%rsp
  404104:	c3                   	retq   
  404105:	89 eb                	mov    %ebp,%ebx
  404107:	81 e3 00 00 00 80    	and    $0x80000000,%ebx
  40410d:	83 fb 00             	cmp    $0x0,%ebx
  404110:	0f 84 0a 03 00 00    	je     404420 <runtime.(*cpuProfile).getprofile+0x400>
  404116:	8b a8 38 00 31 00    	mov    0x310038(%rax),%ebp
  40411c:	41 b8 01 00 00 00    	mov    $0x1,%r8d
  404122:	41 29 e8             	sub    %ebp,%r8d
  404125:	44 89 80 38 00 31 00 	mov    %r8d,0x310038(%rax)
  40412c:	31 ed                	xor    %ebp,%ebp
  40412e:	40 88 a8 3c 00 31 00 	mov    %bpl,0x31003c(%rax)
  404135:	48 c7 c5 01 00 00 00 	mov    $0x1,%rbp
  40413c:	40 88 a8 3d 00 31 00 	mov    %bpl,0x31003d(%rax)
  404143:	31 f6                	xor    %esi,%esi
  404145:	48 c7 44 24 38 00 04 	movq   $0x400,0x38(%rsp)
  40414c:	00 00 
  40414e:	48 8b 6c 24 38       	mov    0x38(%rsp),%rbp
  404153:	48 39 ee             	cmp    %rbp,%rsi
  404156:	0f 8d b2 00 00 00    	jge    40420e <runtime.(*cpuProfile).getprofile+0x1ee>
  40415c:	48 89 74 24 30       	mov    %rsi,0x30(%rsp)
  404161:	48 83 f8 00          	cmp    $0x0,%rax
  404165:	0f 84 ae 02 00 00    	je     404419 <runtime.(*cpuProfile).getprofile+0x3f9>
  40416b:	48 8d 68 28          	lea    0x28(%rax),%rbp
  40416f:	48 89 f3             	mov    %rsi,%rbx
  404172:	48 81 fe 00 04 00 00 	cmp    $0x400,%rsi
  404179:	0f 83 93 02 00 00    	jae    404412 <runtime.(*cpuProfile).getprofile+0x3f2>
  40417f:	48 69 db 40 08 00 00 	imul   $0x840,%rbx,%rbx
  404186:	48 01 dd             	add    %rbx,%rbp
  404189:	48 89 6c 24 50       	mov    %rbp,0x50(%rsp)
  40418e:	31 d2                	xor    %edx,%edx
  404190:	48 c7 44 24 40 04 00 	movq   $0x4,0x40(%rsp)
  404197:	00 00 
  404199:	48 8b 6c 24 40       	mov    0x40(%rsp),%rbp
  40419e:	48 39 ea             	cmp    %rbp,%rdx
  4041a1:	0f 8d 55 02 00 00    	jge    4043fc <runtime.(*cpuProfile).getprofile+0x3dc>
  4041a7:	48 89 54 24 48       	mov    %rdx,0x48(%rsp)
  4041ac:	48 8b 5c 24 50       	mov    0x50(%rsp),%rbx
  4041b1:	48 83 fb 00          	cmp    $0x0,%rbx
  4041b5:	0f 84 50 02 00 00    	je     40440b <runtime.(*cpuProfile).getprofile+0x3eb>
  4041bb:	48 8d 2b             	lea    (%rbx),%rbp
  4041be:	48 89 d3             	mov    %rdx,%rbx
  4041c1:	48 83 fa 04          	cmp    $0x4,%rdx
  4041c5:	0f 83 39 02 00 00    	jae    404404 <runtime.(*cpuProfile).getprofile+0x3e4>
  4041cb:	48 69 db 10 02 00 00 	imul   $0x210,%rbx,%rbx
  4041d2:	48 01 dd             	add    %rbx,%rbp
  4041d5:	48 8b 5d 00          	mov    0x0(%rbp),%rbx
  4041d9:	48 83 fb 00          	cmp    $0x0,%rbx
  4041dd:	0f 86 08 02 00 00    	jbe    4043eb <runtime.(*cpuProfile).getprofile+0x3cb>
  4041e3:	48 89 04 24          	mov    %rax,(%rsp)
  4041e7:	48 89 6c 24 08       	mov    %rbp,0x8(%rsp)
  4041ec:	e8 3f fa ff ff       	callq  403c30 <runtime.(*cpuProfile).evict>
  4041f1:	48 8b 74 24 30       	mov    0x30(%rsp),%rsi
  4041f6:	48 8b 54 24 48       	mov    0x48(%rsp),%rdx
  4041fb:	48 8b 44 24 78       	mov    0x78(%rsp),%rax
  404200:	0f b6 5c 24 10       	movzbl 0x10(%rsp),%ebx
  404205:	80 fb 00             	cmp    $0x0,%bl
  404208:	0f 85 dd 01 00 00    	jne    4043eb <runtime.(*cpuProfile).getprofile+0x3cb>
  40420e:	48 83 f8 00          	cmp    $0x0,%rax
  404212:	0f 84 cc 01 00 00    	je     4043e4 <runtime.(*cpuProfile).getprofile+0x3c4>
  404218:	48 8b 98 28 00 31 00 	mov    0x310028(%rax),%rbx
  40421f:	48 83 fb 00          	cmp    $0x0,%rbx
  404223:	0f 86 a9 00 00 00    	jbe    4042d2 <runtime.(*cpuProfile).getprofile+0x2b2>
  404229:	48 8b 90 28 00 31 00 	mov    0x310028(%rax),%rdx
  404230:	48 c7 80 28 00 31 00 	movq   $0x0,0x310028(%rax)
  404237:	00 00 00 00 
  40423b:	8b 88 30 00 31 00    	mov    0x310030(%rax),%ecx
  404241:	48 8d a8 28 00 21 00 	lea    0x210028(%rax),%rbp
  404248:	48 63 d9             	movslq %ecx,%rbx
  40424b:	48 83 fb 02          	cmp    $0x2,%rbx
  40424f:	73 7a                	jae    4042cb <runtime.(*cpuProfile).getprofile+0x2ab>
  404251:	48 69 db 00 00 08 00 	imul   $0x80000,%rbx,%rbx
  404258:	48 01 dd             	add    %rbx,%rbp
  40425b:	48 81 fa 00 00 01 00 	cmp    $0x10000,%rdx
  404262:	77 60                	ja     4042c4 <runtime.(*cpuProfile).getprofile+0x2a4>
  404264:	48 83 fd 00          	cmp    $0x0,%rbp
  404268:	74 55                	je     4042bf <runtime.(*cpuProfile).getprofile+0x29f>
  40426a:	48 c7 c1 00 00 01 00 	mov    $0x10000,%rcx
  404271:	48 89 6c 24 58       	mov    %rbp,0x58(%rsp)
  404276:	48 89 2c 24          	mov    %rbp,(%rsp)
  40427a:	48 89 54 24 60       	mov    %rdx,0x60(%rsp)
  40427f:	48 89 54 24 08       	mov    %rdx,0x8(%rsp)
  404284:	48 89 4c 24 68       	mov    %rcx,0x68(%rsp)
  404289:	48 89 4c 24 10       	mov    %rcx,0x10(%rsp)
  40428e:	e8 fd 03 00 00       	callq  404690 <runtime.uintptrBytes>
  404293:	48 8b 54 24 18       	mov    0x18(%rsp),%rdx
  404298:	48 8b 4c 24 20       	mov    0x20(%rsp),%rcx
  40429d:	48 8b 44 24 28       	mov    0x28(%rsp),%rax
  4042a2:	48 89 94 24 80 00 00 	mov    %rdx,0x80(%rsp)
  4042a9:	00 
  4042aa:	48 89 8c 24 88 00 00 	mov    %rcx,0x88(%rsp)
  4042b1:	00 
  4042b2:	48 89 84 24 90 00 00 	mov    %rax,0x90(%rsp)
  4042b9:	00 
  4042ba:	48 83 c4 70          	add    $0x70,%rsp
  4042be:	c3                   	retq   
  4042bf:	89 45 00             	mov    %eax,0x0(%rbp)
  4042c2:	eb a6                	jmp    40426a <runtime.(*cpuProfile).getprofile+0x24a>
  4042c4:	e8 37 51 00 00       	callq  409400 <runtime.panicslice>
  4042c9:	0f 0b                	ud2    
  4042cb:	e8 e0 50 00 00       	callq  4093b0 <runtime.panicindex>
  4042d0:	0f 0b                	ud2    
  4042d2:	0f b6 98 3e 00 31 00 	movzbl 0x31003e(%rax),%ebx
  4042d9:	80 fb 00             	cmp    $0x0,%bl
  4042dc:	75 7b                	jne    404359 <runtime.(*cpuProfile).getprofile+0x339>
  4042de:	48 c7 c5 01 00 00 00 	mov    $0x1,%rbp
  4042e5:	40 88 a8 3e 00 31 00 	mov    %bpl,0x31003e(%rax)
  4042ec:	48 8d 1d 8d fd 05 00 	lea    0x5fd8d(%rip),%rbx        # 464080 <runtime.eod>
  4042f3:	48 83 fb 00          	cmp    $0x0,%rbx
  4042f7:	74 5c                	je     404355 <runtime.(*cpuProfile).getprofile+0x335>
  4042f9:	48 c7 c1 03 00 00 00 	mov    $0x3,%rcx
  404300:	48 c7 c2 03 00 00 00 	mov    $0x3,%rdx
  404307:	48 89 5c 24 58       	mov    %rbx,0x58(%rsp)
  40430c:	48 89 1c 24          	mov    %rbx,(%rsp)
  404310:	48 89 4c 24 60       	mov    %rcx,0x60(%rsp)
  404315:	48 89 4c 24 08       	mov    %rcx,0x8(%rsp)
  40431a:	48 89 54 24 68       	mov    %rdx,0x68(%rsp)
  40431f:	48 89 54 24 10       	mov    %rdx,0x10(%rsp)
  404324:	e8 67 03 00 00       	callq  404690 <runtime.uintptrBytes>
  404329:	48 8b 54 24 18       	mov    0x18(%rsp),%rdx
  40432e:	48 8b 4c 24 20       	mov    0x20(%rsp),%rcx
  404333:	48 8b 44 24 28       	mov    0x28(%rsp),%rax
  404338:	48 89 94 24 80 00 00 	mov    %rdx,0x80(%rsp)
  40433f:	00 
  404340:	48 89 8c 24 88 00 00 	mov    %rcx,0x88(%rsp)
  404347:	00 
  404348:	48 89 84 24 90 00 00 	mov    %rax,0x90(%rsp)
  40434f:	00 
  404350:	48 83 c4 70          	add    $0x70,%rsp
  404354:	c3                   	retq   
  404355:	89 03                	mov    %eax,(%rbx)
  404357:	eb a0                	jmp    4042f9 <runtime.(*cpuProfile).getprofile+0x2d9>
  404359:	31 ed                	xor    %ebp,%ebp
  40435b:	40 88 a8 3d 00 31 00 	mov    %bpl,0x31003d(%rax)
  404362:	48 89 04 24          	mov    %rax,(%rsp)
  404366:	48 83 3c 24 00       	cmpq   $0x0,(%rsp)
  40436b:	74 6e                	je     4043db <runtime.(*cpuProfile).getprofile+0x3bb>
  40436d:	48 81 04 24 34 00 31 	addq   $0x310034,(%rsp)
  404374:	00 
  404375:	8b a8 34 00 31 00    	mov    0x310034(%rax),%ebp
  40437b:	89 6c 24 08          	mov    %ebp,0x8(%rsp)
  40437f:	c7 44 24 0c 00 00 00 	movl   $0x0,0xc(%rsp)
  404386:	00 
  404387:	e8 a4 99 02 00       	callq  42dd30 <runtime.cas>
  40438c:	0f b6 5c 24 10       	movzbl 0x10(%rsp),%ebx
  404391:	80 fb 00             	cmp    $0x0,%bl
  404394:	75 43                	jne    4043d9 <runtime.(*cpuProfile).getprofile+0x3b9>
  404396:	48 8d 1d a3 5b 04 00 	lea    0x45ba3(%rip),%rbx        # 449f40 <go.string.*+0x9e58>
  40439d:	48 8d 2c 24          	lea    (%rsp),%rbp
  4043a1:	48 89 ef             	mov    %rbp,%rdi
  4043a4:	48 89 de             	mov    %rbx,%rsi
  4043a7:	48 a5                	movsq  %ds:(%rsi),%es:(%rdi)
  4043a9:	48 a5                	movsq  %ds:(%rsi),%es:(%rdi)
  4043ab:	e8 60 76 00 00       	callq  40ba10 <runtime.printstring>
  4043b0:	48 c7 84 24 80 00 00 	movq   $0x0,0x80(%rsp)
  4043b7:	00 00 00 00 00 
  4043bc:	48 c7 84 24 88 00 00 	movq   $0x0,0x88(%rsp)
  4043c3:	00 00 00 00 00 
  4043c8:	48 c7 84 24 90 00 00 	movq   $0x0,0x90(%rsp)
  4043cf:	00 00 00 00 00 
  4043d4:	48 83 c4 70          	add    $0x70,%rsp
  4043d8:	c3                   	retq   
  4043d9:	eb d5                	jmp    4043b0 <runtime.(*cpuProfile).getprofile+0x390>
  4043db:	89 04 25 00 00 00 00 	mov    %eax,0x0
  4043e2:	eb 89                	jmp    40436d <runtime.(*cpuProfile).getprofile+0x34d>
  4043e4:	89 00                	mov    %eax,(%rax)
  4043e6:	e9 2d fe ff ff       	jmpq   404218 <runtime.(*cpuProfile).getprofile+0x1f8>
  4043eb:	48 ff c2             	inc    %rdx
  4043ee:	48 8b 6c 24 40       	mov    0x40(%rsp),%rbp
  4043f3:	48 39 ea             	cmp    %rbp,%rdx
  4043f6:	0f 8c ab fd ff ff    	jl     4041a7 <runtime.(*cpuProfile).getprofile+0x187>
  4043fc:	48 ff c6             	inc    %rsi
  4043ff:	e9 4a fd ff ff       	jmpq   40414e <runtime.(*cpuProfile).getprofile+0x12e>
  404404:	e8 a7 4f 00 00       	callq  4093b0 <runtime.panicindex>
  404409:	0f 0b                	ud2    
  40440b:	89 03                	mov    %eax,(%rbx)
  40440d:	e9 a9 fd ff ff       	jmpq   4041bb <runtime.(*cpuProfile).getprofile+0x19b>
  404412:	e8 99 4f 00 00       	callq  4093b0 <runtime.panicindex>
  404417:	0f 0b                	ud2    
  404419:	89 00                	mov    %eax,(%rax)
  40441b:	e9 4b fd ff ff       	jmpq   40416b <runtime.(*cpuProfile).getprofile+0x14b>
  404420:	48 89 04 24          	mov    %rax,(%rsp)
  404424:	48 83 3c 24 00       	cmpq   $0x0,(%rsp)
  404429:	0f 84 44 02 00 00    	je     404673 <runtime.(*cpuProfile).getprofile+0x653>
  40442f:	48 81 04 24 34 00 31 	addq   $0x310034,(%rsp)
  404436:	00 
  404437:	89 6c 24 08          	mov    %ebp,0x8(%rsp)
  40443b:	c7 44 24 0c 00 00 00 	movl   $0x0,0xc(%rsp)
  404442:	00 
  404443:	e8 e8 98 02 00       	callq  42dd30 <runtime.cas>
  404448:	48 8b 44 24 78       	mov    0x78(%rsp),%rax
  40444d:	0f b6 5c 24 10       	movzbl 0x10(%rsp),%ebx
  404452:	80 fb 00             	cmp    $0x0,%bl
  404455:	0f 84 07 02 00 00    	je     404662 <runtime.(*cpuProfile).getprofile+0x642>
  40445b:	48 83 f8 00          	cmp    $0x0,%rax
  40445f:	0f 84 f6 01 00 00    	je     40465b <runtime.(*cpuProfile).getprofile+0x63b>
  404465:	8b a8 38 00 31 00    	mov    0x310038(%rax),%ebp
  40446b:	41 b8 01 00 00 00    	mov    $0x1,%r8d
  404471:	41 29 e8             	sub    %ebp,%r8d
  404474:	44 89 80 38 00 31 00 	mov    %r8d,0x310038(%rax)
  40447b:	31 ed                	xor    %ebp,%ebp
  40447d:	40 88 a8 3c 00 31 00 	mov    %bpl,0x31003c(%rax)
  404484:	48 83 f8 00          	cmp    $0x0,%rax
  404488:	0f 84 c6 01 00 00    	je     404654 <runtime.(*cpuProfile).getprofile+0x634>
  40448e:	0f b6 98 3d 00 31 00 	movzbl 0x31003d(%rax),%ebx
  404495:	80 fb 00             	cmp    $0x0,%bl
  404498:	0f 85 a5 fc ff ff    	jne    404143 <runtime.(*cpuProfile).getprofile+0x123>
  40449e:	0f b6 18             	movzbl (%rax),%ebx
  4044a1:	80 fb 00             	cmp    $0x0,%bl
  4044a4:	75 34                	jne    4044da <runtime.(*cpuProfile).getprofile+0x4ba>
  4044a6:	8b 98 34 00 31 00    	mov    0x310034(%rax),%ebx
  4044ac:	83 fb 00             	cmp    $0x0,%ebx
  4044af:	75 29                	jne    4044da <runtime.(*cpuProfile).getprofile+0x4ba>
  4044b1:	48 c7 84 24 80 00 00 	movq   $0x0,0x80(%rsp)
  4044b8:	00 00 00 00 00 
  4044bd:	48 c7 84 24 88 00 00 	movq   $0x0,0x88(%rsp)
  4044c4:	00 00 00 00 00 
  4044c9:	48 c7 84 24 90 00 00 	movq   $0x0,0x90(%rsp)
  4044d0:	00 00 00 00 00 
  4044d5:	48 83 c4 70          	add    $0x70,%rsp
  4044d9:	c3                   	retq   
  4044da:	48 89 04 24          	mov    %rax,(%rsp)
  4044de:	48 83 3c 24 00       	cmpq   $0x0,(%rsp)
  4044e3:	0f 84 5f 01 00 00    	je     404648 <runtime.(*cpuProfile).getprofile+0x628>
  4044e9:	48 83 04 24 08       	addq   $0x8,(%rsp)
  4044ee:	48 c7 44 24 08 ff ff 	movq   $0xffffffffffffffff,0x8(%rsp)
  4044f5:	ff ff 
  4044f7:	e8 84 21 00 00       	callq  406680 <runtime.notetsleepg>
  4044fc:	48 8b 4c 24 78       	mov    0x78(%rsp),%rcx
  404501:	48 89 c8             	mov    %rcx,%rax
  404504:	48 83 f9 00          	cmp    $0x0,%rcx
  404508:	0f 84 33 01 00 00    	je     404641 <runtime.(*cpuProfile).getprofile+0x621>
  40450e:	48 83 c1 08          	add    $0x8,%rcx
  404512:	48 c7 01 00 00 00 00 	movq   $0x0,(%rcx)
  404519:	48 83 f8 00          	cmp    $0x0,%rax
  40451d:	0f 84 17 01 00 00    	je     40463a <runtime.(*cpuProfile).getprofile+0x61a>
  404523:	8b a8 34 00 31 00    	mov    0x310034(%rax),%ebp
  404529:	83 fd 00             	cmp    $0x0,%ebp
  40452c:	75 43                	jne    404571 <runtime.(*cpuProfile).getprofile+0x551>
  40452e:	48 8d 1d cb 59 04 00 	lea    0x459cb(%rip),%rbx        # 449f00 <go.string.*+0x9e18>
  404535:	48 8d 2c 24          	lea    (%rsp),%rbp
  404539:	48 89 ef             	mov    %rbp,%rdi
  40453c:	48 89 de             	mov    %rbx,%rsi
  40453f:	48 a5                	movsq  %ds:(%rsi),%es:(%rdi)
  404541:	48 a5                	movsq  %ds:(%rsi),%es:(%rdi)
  404543:	e8 c8 74 00 00       	callq  40ba10 <runtime.printstring>
  404548:	48 c7 84 24 80 00 00 	movq   $0x0,0x80(%rsp)
  40454f:	00 00 00 00 00 
  404554:	48 c7 84 24 88 00 00 	movq   $0x0,0x88(%rsp)
  40455b:	00 00 00 00 00 
  404560:	48 c7 84 24 90 00 00 	movq   $0x0,0x90(%rsp)
  404567:	00 00 00 00 00 
  40456c:	48 83 c4 70          	add    $0x70,%rsp
  404570:	c3                   	retq   
  404571:	81 fd 00 00 00 80    	cmp    $0x80000000,%ebp
  404577:	75 13                	jne    40458c <runtime.(*cpuProfile).getprofile+0x56c>
  404579:	48 c7 c5 01 00 00 00 	mov    $0x1,%rbp
  404580:	40 88 a8 3d 00 31 00 	mov    %bpl,0x31003d(%rax)
  404587:	e9 b7 fb ff ff       	jmpq   404143 <runtime.(*cpuProfile).getprofile+0x123>
  40458c:	89 ea                	mov    %ebp,%edx
  40458e:	81 e2 ff ff ff 7f    	and    $0x7fffffff,%edx
  404594:	48 c7 c5 01 00 00 00 	mov    $0x1,%rbp
  40459b:	40 88 a8 3c 00 31 00 	mov    %bpl,0x31003c(%rax)
  4045a2:	8b 88 38 00 31 00    	mov    0x310038(%rax),%ecx
  4045a8:	48 8d a8 28 00 21 00 	lea    0x210028(%rax),%rbp
  4045af:	8b d9                	mov    %ecx,%ebx
  4045b1:	48 83 fb 02          	cmp    $0x2,%rbx
  4045b5:	73 7c                	jae    404633 <runtime.(*cpuProfile).getprofile+0x613>
  4045b7:	48 69 db 00 00 08 00 	imul   $0x80000,%rbx,%rbx
  4045be:	48 01 dd             	add    %rbx,%rbp
  4045c1:	8b da                	mov    %edx,%ebx
  4045c3:	48 81 fb 00 00 01 00 	cmp    $0x10000,%rbx
  4045ca:	77 60                	ja     40462c <runtime.(*cpuProfile).getprofile+0x60c>
  4045cc:	48 83 fd 00          	cmp    $0x0,%rbp
  4045d0:	74 55                	je     404627 <runtime.(*cpuProfile).getprofile+0x607>
  4045d2:	48 c7 c1 00 00 01 00 	mov    $0x10000,%rcx
  4045d9:	48 89 6c 24 58       	mov    %rbp,0x58(%rsp)
  4045de:	48 89 2c 24          	mov    %rbp,(%rsp)
  4045e2:	48 89 5c 24 60       	mov    %rbx,0x60(%rsp)
  4045e7:	48 89 5c 24 08       	mov    %rbx,0x8(%rsp)
  4045ec:	48 89 4c 24 68       	mov    %rcx,0x68(%rsp)
  4045f1:	48 89 4c 24 10       	mov    %rcx,0x10(%rsp)
  4045f6:	e8 95 00 00 00       	callq  404690 <runtime.uintptrBytes>
  4045fb:	48 8b 54 24 18       	mov    0x18(%rsp),%rdx
  404600:	48 8b 4c 24 20       	mov    0x20(%rsp),%rcx
  404605:	48 8b 44 24 28       	mov    0x28(%rsp),%rax
  40460a:	48 89 94 24 80 00 00 	mov    %rdx,0x80(%rsp)
  404611:	00 
  404612:	48 89 8c 24 88 00 00 	mov    %rcx,0x88(%rsp)
  404619:	00 
  40461a:	48 89 84 24 90 00 00 	mov    %rax,0x90(%rsp)
  404621:	00 
  404622:	48 83 c4 70          	add    $0x70,%rsp
  404626:	c3                   	retq   
  404627:	89 45 00             	mov    %eax,0x0(%rbp)
  40462a:	eb a6                	jmp    4045d2 <runtime.(*cpuProfile).getprofile+0x5b2>
  40462c:	e8 cf 4d 00 00       	callq  409400 <runtime.panicslice>
  404631:	0f 0b                	ud2    
  404633:	e8 78 4d 00 00       	callq  4093b0 <runtime.panicindex>
  404638:	0f 0b                	ud2    
  40463a:	89 00                	mov    %eax,(%rax)
  40463c:	e9 e2 fe ff ff       	jmpq   404523 <runtime.(*cpuProfile).getprofile+0x503>
  404641:	89 01                	mov    %eax,(%rcx)
  404643:	e9 c6 fe ff ff       	jmpq   40450e <runtime.(*cpuProfile).getprofile+0x4ee>
  404648:	89 04 25 00 00 00 00 	mov    %eax,0x0
  40464f:	e9 95 fe ff ff       	jmpq   4044e9 <runtime.(*cpuProfile).getprofile+0x4c9>
  404654:	89 00                	mov    %eax,(%rax)
  404656:	e9 33 fe ff ff       	jmpq   40448e <runtime.(*cpuProfile).getprofile+0x46e>
  40465b:	89 00                	mov    %eax,(%rax)
  40465d:	e9 03 fe ff ff       	jmpq   404465 <runtime.(*cpuProfile).getprofile+0x445>
  404662:	48 83 f8 00          	cmp    $0x0,%rax
  404666:	0f 85 4b fa ff ff    	jne    4040b7 <runtime.(*cpuProfile).getprofile+0x97>
  40466c:	89 00                	mov    %eax,(%rax)
  40466e:	e9 44 fa ff ff       	jmpq   4040b7 <runtime.(*cpuProfile).getprofile+0x97>
  404673:	89 04 25 00 00 00 00 	mov    %eax,0x0
  40467a:	e9 b0 fd ff ff       	jmpq   40442f <runtime.(*cpuProfile).getprofile+0x40f>
  40467f:	89 00                	mov    %eax,(%rax)
  404681:	e9 17 fa ff ff       	jmpq   40409d <runtime.(*cpuProfile).getprofile+0x7d>
	...

0000000000404690 <runtime.uintptrBytes>:
  404690:	64 48 8b 0c 25 f0 ff 	mov    %fs:0xfffffffffffffff0,%rcx
  404697:	ff ff 
  404699:	48 3b 61 10          	cmp    0x10(%rcx),%rsp
  40469d:	77 07                	ja     4046a6 <runtime.uintptrBytes+0x16>
  40469f:	e8 ac 84 02 00       	callq  42cb50 <runtime.morestack_noctxt>
  4046a4:	eb ea                	jmp    404690 <runtime.uintptrBytes>
  4046a6:	48 83 ec 20          	sub    $0x20,%rsp
  4046aa:	48 c7 44 24 40 00 00 	movq   $0x0,0x40(%rsp)
  4046b1:	00 00 
  4046b3:	48 c7 44 24 48 00 00 	movq   $0x0,0x48(%rsp)
  4046ba:	00 00 
  4046bc:	48 c7 44 24 50 00 00 	movq   $0x0,0x50(%rsp)
  4046c3:	00 00 
  4046c5:	48 c7 44 24 40 00 00 	movq   $0x0,0x40(%rsp)
  4046cc:	00 00 
  4046ce:	48 c7 44 24 48 00 00 	movq   $0x0,0x48(%rsp)
  4046d5:	00 00 
  4046d7:	48 c7 44 24 50 00 00 	movq   $0x0,0x50(%rsp)
  4046de:	00 00 
  4046e0:	48 8d 5c 24 28       	lea    0x28(%rsp),%rbx
  4046e5:	48 89 d9             	mov    %rbx,%rcx
  4046e8:	48 8d 5c 24 40       	lea    0x40(%rsp),%rbx
  4046ed:	48 89 5c 24 10       	mov    %rbx,0x10(%rsp)
  4046f2:	48 89 1c 24          	mov    %rbx,(%rsp)
  4046f6:	48 83 3c 24 00       	cmpq   $0x0,(%rsp)
  4046fb:	74 35                	je     404732 <runtime.uintptrBytes+0xa2>
  4046fd:	48 89 4c 24 18       	mov    %rcx,0x18(%rsp)
  404702:	48 8b 29             	mov    (%rcx),%rbp
  404705:	48 89 6c 24 08       	mov    %rbp,0x8(%rsp)
  40470a:	e8 61 35 00 00       	callq  407c70 <runtime.writebarrierptr>
  40470f:	48 8b 4c 24 10       	mov    0x10(%rsp),%rcx
  404714:	48 8b 5c 24 18       	mov    0x18(%rsp),%rbx
  404719:	48 8b 6b 08          	mov    0x8(%rbx),%rbp
  40471d:	48 c1 e5 03          	shl    $0x3,%rbp
  404721:	48 89 69 08          	mov    %rbp,0x8(%rcx)
  404725:	48 8b 69 08          	mov    0x8(%rcx),%rbp
  404729:	48 89 69 10          	mov    %rbp,0x10(%rcx)
  40472d:	48 83 c4 20          	add    $0x20,%rsp
  404731:	c3                   	retq   
  404732:	89 04 25 00 00 00 00 	mov    %eax,0x0
  404739:	eb c2                	jmp    4046fd <runtime.uintptrBytes+0x6d>
  40473b:	00 00                	add    %al,(%rax)
  40473d:	00 00                	add    %al,(%rax)
	...

0000000000404740 <runtime.getenv>:
  404740:	64 48 8b 0c 25 f0 ff 	mov    %fs:0xfffffffffffffff0,%rcx
  404747:	ff ff 
  404749:	48 3b 61 10          	cmp    0x10(%rcx),%rsp
  40474d:	77 07                	ja     404756 <runtime.getenv+0x16>
  40474f:	e8 fc 83 02 00       	callq  42cb50 <runtime.morestack_noctxt>
  404754:	eb ea                	jmp    404740 <runtime.getenv>
  404756:	48 83 ec 48          	sub    $0x48,%rsp
  40475a:	48 8b 5c 24 50       	mov    0x50(%rsp),%rbx
  40475f:	48 89 1c 24          	mov    %rbx,(%rsp)
  404763:	e8 98 77 02 00       	callq  42bf00 <runtime.gostringnocopy>
  404768:	48 8b 4c 24 08       	mov    0x8(%rsp),%rcx
  40476d:	48 8b 44 24 10       	mov    0x10(%rsp),%rax
  404772:	48 89 4c 24 38       	mov    %rcx,0x38(%rsp)
  404777:	48 89 0c 24          	mov    %rcx,(%rsp)
  40477b:	48 89 44 24 40       	mov    %rax,0x40(%rsp)
  404780:	48 89 44 24 08       	mov    %rax,0x8(%rsp)
  404785:	e8 66 00 00 00       	callq  4047f0 <runtime.gogetenv>
  40478a:	48 8b 4c 24 10       	mov    0x10(%rsp),%rcx
  40478f:	48 8b 44 24 18       	mov    0x18(%rsp),%rax
  404794:	48 83 f8 00          	cmp    $0x0,%rax
  404798:	75 0e                	jne    4047a8 <runtime.getenv+0x68>
  40479a:	48 c7 44 24 58 00 00 	movq   $0x0,0x58(%rsp)
  4047a1:	00 00 
  4047a3:	48 83 c4 48          	add    $0x48,%rsp
  4047a7:	c3                   	retq   
  4047a8:	48 89 4c 24 28       	mov    %rcx,0x28(%rsp)
  4047ad:	48 89 0c 24          	mov    %rcx,(%rsp)
  4047b1:	48 89 44 24 30       	mov    %rax,0x30(%rsp)
  4047b6:	48 89 44 24 08       	mov    %rax,0x8(%rsp)
  4047bb:	e8 d0 5e 00 00       	callq  40a690 <runtime.bytes>
  4047c0:	48 8b 4c 24 10       	mov    0x10(%rsp),%rcx
  4047c5:	48 8b 44 24 18       	mov    0x18(%rsp),%rax
  4047ca:	48 8b 5c 24 20       	mov    0x20(%rsp),%rbx
  4047cf:	48 83 f8 00          	cmp    $0x0,%rax
  4047d3:	76 0a                	jbe    4047df <runtime.getenv+0x9f>
  4047d5:	48 89 4c 24 58       	mov    %rcx,0x58(%rsp)
  4047da:	48 83 c4 48          	add    $0x48,%rsp
  4047de:	c3                   	retq   
  4047df:	e8 cc 4b 00 00       	callq  4093b0 <runtime.panicindex>
  4047e4:	0f 0b                	ud2    
	...

00000000004047f0 <runtime.gogetenv>:
  4047f0:	64 48 8b 0c 25 f0 ff 	mov    %fs:0xfffffffffffffff0,%rcx
  4047f7:	ff ff 
  4047f9:	48 8d 44 24 d8       	lea    -0x28(%rsp),%rax
  4047fe:	48 3b 41 10          	cmp    0x10(%rcx),%rax
  404802:	77 07                	ja     40480b <runtime.gogetenv+0x1b>
  404804:	e8 47 83 02 00       	callq  42cb50 <runtime.morestack_noctxt>
  404809:	eb e5                	jmp    4047f0 <runtime.gogetenv>
  40480b:	48 81 ec a8 00 00 00 	sub    $0xa8,%rsp
  404812:	48 c7 84 24 c0 00 00 	movq   $0x0,0xc0(%rsp)
  404819:	00 00 00 00 00 
  40481e:	48 c7 84 24 c8 00 00 	movq   $0x0,0xc8(%rsp)
  404825:	00 00 00 00 00 
  40482a:	e8 21 43 02 00       	callq  428b50 <runtime.environ>
  40482f:	48 8b 14 24          	mov    (%rsp),%rdx
  404833:	48 8b 4c 24 08       	mov    0x8(%rsp),%rcx
  404838:	48 8b 44 24 10       	mov    0x10(%rsp),%rax
  40483d:	48 89 4c 24 68       	mov    %rcx,0x68(%rsp)
  404842:	48 89 44 24 70       	mov    %rax,0x70(%rsp)
  404847:	48 83 fa 00          	cmp    $0x0,%rdx
  40484b:	48 89 54 24 60       	mov    %rdx,0x60(%rsp)
  404850:	75 1a                	jne    40486c <runtime.gogetenv+0x7c>
  404852:	48 8d 1d a7 2e 04 00 	lea    0x42ea7(%rip),%rbx        # 447700 <go.string.*+0x7618>
  404859:	48 8d 2c 24          	lea    (%rsp),%rbp
  40485d:	48 89 ef             	mov    %rbp,%rdi
  404860:	48 89 de             	mov    %rbx,%rsi
  404863:	48 a5                	movsq  %ds:(%rsi),%es:(%rdi)
  404865:	48 a5                	movsq  %ds:(%rsi),%es:(%rdi)
  404867:	e8 84 5d 00 00       	callq  40a5f0 <runtime.gothrow>
  40486c:	e8 df 42 02 00       	callq  428b50 <runtime.environ>
  404871:	48 8b 84 24 b8 00 00 	mov    0xb8(%rsp),%rax
  404878:	00 
  404879:	48 8b 3c 24          	mov    (%rsp),%rdi
  40487d:	48 8b 4c 24 08       	mov    0x8(%rsp),%rcx
  404882:	48 8b 6c 24 10       	mov    0x10(%rsp),%rbp
  404887:	48 89 bc 24 90 00 00 	mov    %rdi,0x90(%rsp)
  40488e:	00 
  40488f:	48 89 8c 24 98 00 00 	mov    %rcx,0x98(%rsp)
  404896:	00 
  404897:	48 89 ac 24 a0 00 00 	mov    %rbp,0xa0(%rsp)
  40489e:	00 
  40489f:	48 89 ac 24 88 00 00 	mov    %rbp,0x88(%rsp)
  4048a6:	00 
  4048a7:	45 31 c9             	xor    %r9d,%r9d
  4048aa:	48 89 8c 24 80 00 00 	mov    %rcx,0x80(%rsp)
  4048b1:	00 
  4048b2:	48 89 4c 24 28       	mov    %rcx,0x28(%rsp)
  4048b7:	48 89 7c 24 78       	mov    %rdi,0x78(%rsp)
  4048bc:	48 8b 6c 24 28       	mov    0x28(%rsp),%rbp
  4048c1:	49 39 e9             	cmp    %rbp,%r9
  4048c4:	0f 8d ff 00 00 00    	jge    4049c9 <runtime.gogetenv+0x1d9>
  4048ca:	48 89 7c 24 38       	mov    %rdi,0x38(%rsp)
  4048cf:	48 83 ff 00          	cmp    $0x0,%rdi
  4048d3:	0f 84 1e 01 00 00    	je     4049f7 <runtime.gogetenv+0x207>
  4048d9:	48 8b 37             	mov    (%rdi),%rsi
  4048dc:	48 8b 4f 08          	mov    0x8(%rdi),%rcx
  4048e0:	4c 89 4c 24 30       	mov    %r9,0x30(%rsp)
  4048e5:	48 39 c1             	cmp    %rax,%rcx
  4048e8:	0f 8e c6 00 00 00    	jle    4049b4 <runtime.gogetenv+0x1c4>
  4048ee:	48 39 c8             	cmp    %rcx,%rax
  4048f1:	0f 83 f9 00 00 00    	jae    4049f0 <runtime.gogetenv+0x200>
  4048f7:	48 8d 1c 06          	lea    (%rsi,%rax,1),%rbx
  4048fb:	0f b6 1b             	movzbl (%rbx),%ebx
  4048fe:	80 fb 3d             	cmp    $0x3d,%bl
  404901:	0f 85 ad 00 00 00    	jne    4049b4 <runtime.gogetenv+0x1c4>
  404907:	48 89 4c 24 48       	mov    %rcx,0x48(%rsp)
  40490c:	48 39 c1             	cmp    %rax,%rcx
  40490f:	0f 82 d4 00 00 00    	jb     4049e9 <runtime.gogetenv+0x1f9>
  404915:	48 89 74 24 40       	mov    %rsi,0x40(%rsp)
  40491a:	48 39 c0             	cmp    %rax,%rax
  40491d:	0f 85 91 00 00 00    	jne    4049b4 <runtime.gogetenv+0x1c4>
  404923:	48 89 74 24 50       	mov    %rsi,0x50(%rsp)
  404928:	48 89 34 24          	mov    %rsi,(%rsp)
  40492c:	48 89 44 24 58       	mov    %rax,0x58(%rsp)
  404931:	48 89 44 24 08       	mov    %rax,0x8(%rsp)
  404936:	48 8b ac 24 b0 00 00 	mov    0xb0(%rsp),%rbp
  40493d:	00 
  40493e:	48 89 6c 24 10       	mov    %rbp,0x10(%rsp)
  404943:	48 89 44 24 18       	mov    %rax,0x18(%rsp)
  404948:	e8 43 99 02 00       	callq  42e290 <runtime.eqstring>
  40494d:	4c 8b 4c 24 30       	mov    0x30(%rsp),%r9
  404952:	48 8b 7c 24 38       	mov    0x38(%rsp),%rdi
  404957:	48 8b 84 24 b8 00 00 	mov    0xb8(%rsp),%rax
  40495e:	00 
  40495f:	0f b6 5c 24 20       	movzbl 0x20(%rsp),%ebx
  404964:	80 fb 00             	cmp    $0x0,%bl
  404967:	74 4b                	je     4049b4 <runtime.gogetenv+0x1c4>
  404969:	48 89 c1             	mov    %rax,%rcx
  40496c:	48 ff c1             	inc    %rcx
  40496f:	48 8b 5c 24 48       	mov    0x48(%rsp),%rbx
  404974:	48 8b 54 24 48       	mov    0x48(%rsp),%rdx
  404979:	48 39 ca             	cmp    %rcx,%rdx
  40497c:	72 2f                	jb     4049ad <runtime.gogetenv+0x1bd>
  40497e:	48 8b 44 24 40       	mov    0x40(%rsp),%rax
  404983:	48 29 ca             	sub    %rcx,%rdx
  404986:	48 83 fa 00          	cmp    $0x0,%rdx
  40498a:	74 09                	je     404995 <runtime.gogetenv+0x1a5>
  40498c:	48 89 cb             	mov    %rcx,%rbx
  40498f:	48 01 c3             	add    %rax,%rbx
  404992:	48 89 d8             	mov    %rbx,%rax
  404995:	48 89 84 24 c0 00 00 	mov    %rax,0xc0(%rsp)
  40499c:	00 
  40499d:	48 89 94 24 c8 00 00 	mov    %rdx,0xc8(%rsp)
  4049a4:	00 
  4049a5:	48 81 c4 a8 00 00 00 	add    $0xa8,%rsp
  4049ac:	c3                   	retq   
  4049ad:	e8 4e 4a 00 00       	callq  409400 <runtime.panicslice>
  4049b2:	0f 0b                	ud2    
  4049b4:	48 83 c7 10          	add    $0x10,%rdi
  4049b8:	49 ff c1             	inc    %r9
  4049bb:	48 8b 6c 24 28       	mov    0x28(%rsp),%rbp
  4049c0:	49 39 e9             	cmp    %rbp,%r9
  4049c3:	0f 8c 01 ff ff ff    	jl     4048ca <runtime.gogetenv+0xda>
  4049c9:	48 c7 84 24 c0 00 00 	movq   $0x0,0xc0(%rsp)
  4049d0:	00 00 00 00 00 
  4049d5:	48 c7 84 24 c8 00 00 	movq   $0x0,0xc8(%rsp)
  4049dc:	00 00 00 00 00 
  4049e1:	48 81 c4 a8 00 00 00 	add    $0xa8,%rsp
  4049e8:	c3                   	retq   
  4049e9:	e8 12 4a 00 00       	callq  409400 <runtime.panicslice>
  4049ee:	0f 0b                	ud2    
  4049f0:	e8 bb 49 00 00       	callq  4093b0 <runtime.panicindex>
  4049f5:	0f 0b                	ud2    
  4049f7:	89 07                	mov    %eax,(%rdi)
  4049f9:	e9 db fe ff ff       	jmpq   4048d9 <runtime.gogetenv+0xe9>
	...

0000000000404a00 <runtime.(*TypeAssertionError).RuntimeError>:
  404a00:	c3                   	retq   
	...

0000000000404a10 <runtime.(*TypeAssertionError).Error>:
  404a10:	64 48 8b 0c 25 f0 ff 	mov    %fs:0xfffffffffffffff0,%rcx
  404a17:	ff ff 
  404a19:	48 8d 44 24 a8       	lea    -0x58(%rsp),%rax
  404a1e:	48 3b 41 10          	cmp    0x10(%rcx),%rax
  404a22:	77 07                	ja     404a2b <runtime.(*TypeAssertionError).Error+0x1b>
  404a24:	e8 27 81 02 00       	callq  42cb50 <runtime.morestack_noctxt>
  404a29:	eb e5                	jmp    404a10 <runtime.(*TypeAssertionError).Error>
  404a2b:	48 81 ec d8 00 00 00 	sub    $0xd8,%rsp
  404a32:	48 8b 84 24 e0 00 00 	mov    0xe0(%rsp),%rax
  404a39:	00 
  404a3a:	48 c7 84 24 e8 00 00 	movq   $0x0,0xe8(%rsp)
  404a41:	00 00 00 00 00 
  404a46:	48 c7 84 24 f0 00 00 	movq   $0x0,0xf0(%rsp)
  404a4d:	00 00 00 00 00 
  404a52:	48 83 f8 00          	cmp    $0x0,%rax
  404a56:	0f 84 da 02 00 00    	je     404d36 <runtime.(*TypeAssertionError).Error+0x326>
  404a5c:	4c 8b 00             	mov    (%rax),%r8
  404a5f:	4c 89 44 24 50       	mov    %r8,0x50(%rsp)
  404a64:	48 8b 50 08          	mov    0x8(%rax),%rdx
  404a68:	48 89 54 24 58       	mov    %rdx,0x58(%rsp)
  404a6d:	48 83 fa 00          	cmp    $0x0,%rdx
  404a71:	75 18                	jne    404a8b <runtime.(*TypeAssertionError).Error+0x7b>
  404a73:	48 8d 1d 26 fe 03 00 	lea    0x3fe26(%rip),%rbx        # 4448a0 <go.string.*+0x47b8>
  404a7a:	4c 8b 03             	mov    (%rbx),%r8
  404a7d:	4c 89 44 24 50       	mov    %r8,0x50(%rsp)
  404a82:	48 8b 53 08          	mov    0x8(%rbx),%rdx
  404a86:	48 89 54 24 58       	mov    %rdx,0x58(%rsp)
  404a8b:	48 8b 58 18          	mov    0x18(%rax),%rbx
  404a8f:	48 83 fb 00          	cmp    $0x0,%rbx
  404a93:	75 6f                	jne    404b04 <runtime.(*TypeAssertionError).Error+0xf4>
  404a95:	48 8d 1d 24 2e 04 00 	lea    0x42e24(%rip),%rbx        # 4478c0 <go.string.*+0x77d8>
  404a9c:	48 8d 2c 24          	lea    (%rsp),%rbp
  404aa0:	48 89 ef             	mov    %rbp,%rdi
  404aa3:	48 89 de             	mov    %rbx,%rsi
  404aa6:	48 a5                	movsq  %ds:(%rsi),%es:(%rdi)
  404aa8:	48 a5                	movsq  %ds:(%rsi),%es:(%rdi)
  404aaa:	4c 89 44 24 10       	mov    %r8,0x10(%rsp)
  404aaf:	48 89 54 24 18       	mov    %rdx,0x18(%rsp)
  404ab4:	48 8d 1d 25 e5 03 00 	lea    0x3e525(%rip),%rbx        # 442fe0 <go.string.*+0x2ef8>
  404abb:	48 8d 6c 24 20       	lea    0x20(%rsp),%rbp
  404ac0:	48 89 ef             	mov    %rbp,%rdi
  404ac3:	48 89 de             	mov    %rbx,%rsi
  404ac6:	48 a5                	movsq  %ds:(%rsi),%es:(%rdi)
  404ac8:	48 a5                	movsq  %ds:(%rsi),%es:(%rdi)
  404aca:	48 8d 68 20          	lea    0x20(%rax),%rbp
  404ace:	48 8d 5c 24 30       	lea    0x30(%rsp),%rbx
  404ad3:	48 89 df             	mov    %rbx,%rdi
  404ad6:	48 89 ee             	mov    %rbp,%rsi
  404ad9:	48 a5                	movsq  %ds:(%rsi),%es:(%rdi)
  404adb:	48 a5                	movsq  %ds:(%rsi),%es:(%rdi)
  404add:	e8 fe 92 00 00       	callq  40dde0 <runtime.concatstring4>
  404ae2:	48 8b 5c 24 40       	mov    0x40(%rsp),%rbx
  404ae7:	48 89 9c 24 e8 00 00 	mov    %rbx,0xe8(%rsp)
  404aee:	00 
  404aef:	48 8b 5c 24 48       	mov    0x48(%rsp),%rbx
  404af4:	48 89 9c 24 f0 00 00 	mov    %rbx,0xf0(%rsp)
  404afb:	00 
  404afc:	48 81 c4 d8 00 00 00 	add    $0xd8,%rsp
  404b03:	c3                   	retq   
  404b04:	48 8b 58 38          	mov    0x38(%rax),%rbx
  404b08:	48 83 fb 00          	cmp    $0x0,%rbx
  404b0c:	0f 85 0f 01 00 00    	jne    404c21 <runtime.(*TypeAssertionError).Error+0x211>
  404b12:	48 8d 5c 24 78       	lea    0x78(%rsp),%rbx
  404b17:	48 83 fb 00          	cmp    $0x0,%rbx
  404b1b:	0f 84 f9 00 00 00    	je     404c1a <runtime.(*TypeAssertionError).Error+0x20a>
  404b21:	48 8d 2d 18 72 04 00 	lea    0x47218(%rip),%rbp        # 44bd40 <runtime.statictmp_0358>
  404b28:	48 89 df             	mov    %rbx,%rdi
  404b2b:	48 89 ee             	mov    %rbp,%rsi
  404b2e:	e8 e5 9f 02 00       	callq  42eb18 <runtime.duffcopy+0x658>
  404b33:	48 c7 c5 06 00 00 00 	mov    $0x6,%rbp
  404b3a:	48 c7 c1 06 00 00 00 	mov    $0x6,%rcx
  404b41:	48 89 6c 24 68       	mov    %rbp,0x68(%rsp)
  404b46:	48 89 4c 24 70       	mov    %rcx,0x70(%rsp)
  404b4b:	48 89 5c 24 60       	mov    %rbx,0x60(%rsp)
  404b50:	48 83 c3 10          	add    $0x10,%rbx
  404b54:	48 89 1c 24          	mov    %rbx,(%rsp)
  404b58:	4c 89 44 24 08       	mov    %r8,0x8(%rsp)
  404b5d:	48 89 54 24 10       	mov    %rdx,0x10(%rsp)
  404b62:	e8 19 31 00 00       	callq  407c80 <runtime.writebarrierstring>
  404b67:	48 8b 5c 24 60       	mov    0x60(%rsp),%rbx
  404b6c:	48 83 c3 30          	add    $0x30,%rbx
  404b70:	48 89 1c 24          	mov    %rbx,(%rsp)
  404b74:	48 8b bc 24 e0 00 00 	mov    0xe0(%rsp),%rdi
  404b7b:	00 
  404b7c:	48 83 ff 00          	cmp    $0x0,%rdi
  404b80:	0f 84 8d 00 00 00    	je     404c13 <runtime.(*TypeAssertionError).Error+0x203>
  404b86:	48 8d 6f 10          	lea    0x10(%rdi),%rbp
  404b8a:	48 8d 7c 24 08       	lea    0x8(%rsp),%rdi
  404b8f:	48 89 ee             	mov    %rbp,%rsi
  404b92:	48 a5                	movsq  %ds:(%rsi),%es:(%rdi)
  404b94:	48 a5                	movsq  %ds:(%rsi),%es:(%rdi)
  404b96:	e8 e5 30 00 00       	callq  407c80 <runtime.writebarrierstring>
  404b9b:	48 8b 5c 24 60       	mov    0x60(%rsp),%rbx
  404ba0:	48 83 c3 50          	add    $0x50,%rbx
  404ba4:	48 89 1c 24          	mov    %rbx,(%rsp)
  404ba8:	48 8b bc 24 e0 00 00 	mov    0xe0(%rsp),%rdi
  404baf:	00 
  404bb0:	48 83 ff 00          	cmp    $0x0,%rdi
  404bb4:	74 59                	je     404c0f <runtime.(*TypeAssertionError).Error+0x1ff>
  404bb6:	48 8d 6f 20          	lea    0x20(%rdi),%rbp
  404bba:	48 8d 7c 24 08       	lea    0x8(%rsp),%rdi
  404bbf:	48 89 ee             	mov    %rbp,%rsi
  404bc2:	48 a5                	movsq  %ds:(%rsi),%es:(%rdi)
  404bc4:	48 a5                	movsq  %ds:(%rsi),%es:(%rdi)
  404bc6:	e8 b5 30 00 00       	callq  407c80 <runtime.writebarrierstring>
  404bcb:	48 8b 5c 24 60       	mov    0x60(%rsp),%rbx
  404bd0:	48 89 1c 24          	mov    %rbx,(%rsp)
  404bd4:	48 8b 5c 24 68       	mov    0x68(%rsp),%rbx
  404bd9:	48 89 5c 24 08       	mov    %rbx,0x8(%rsp)
  404bde:	48 8b 5c 24 70       	mov    0x70(%rsp),%rbx
  404be3:	48 89 5c 24 10       	mov    %rbx,0x10(%rsp)
  404be8:	e8 13 8e 00 00       	callq  40da00 <runtime.concatstrings>
  404bed:	48 8b 5c 24 18       	mov    0x18(%rsp),%rbx
  404bf2:	48 89 9c 24 e8 00 00 	mov    %rbx,0xe8(%rsp)
  404bf9:	00 
  404bfa:	48 8b 5c 24 20       	mov    0x20(%rsp),%rbx
  404bff:	48 89 9c 24 f0 00 00 	mov    %rbx,0xf0(%rsp)
  404c06:	00 
  404c07:	48 81 c4 d8 00 00 00 	add    $0xd8,%rsp
  404c0e:	c3                   	retq   
  404c0f:	89 07                	mov    %eax,(%rdi)
  404c11:	eb a3                	jmp    404bb6 <runtime.(*TypeAssertionError).Error+0x1a6>
  404c13:	89 07                	mov    %eax,(%rdi)
  404c15:	e9 6c ff ff ff       	jmpq   404b86 <runtime.(*TypeAssertionError).Error+0x176>
  404c1a:	89 03                	mov    %eax,(%rbx)
  404c1c:	e9 00 ff ff ff       	jmpq   404b21 <runtime.(*TypeAssertionError).Error+0x111>
  404c21:	48 8d 5c 24 78       	lea    0x78(%rsp),%rbx
  404c26:	48 83 fb 00          	cmp    $0x0,%rbx
  404c2a:	0f 84 ff 00 00 00    	je     404d2f <runtime.(*TypeAssertionError).Error+0x31f>
  404c30:	48 8d 2d 69 71 04 00 	lea    0x47169(%rip),%rbp        # 44bda0 <runtime.statictmp_0361>
  404c37:	48 89 df             	mov    %rbx,%rdi
  404c3a:	48 89 ee             	mov    %rbp,%rsi
  404c3d:	e8 d6 9e 02 00       	callq  42eb18 <runtime.duffcopy+0x658>
  404c42:	48 89 df             	mov    %rbx,%rdi
  404c45:	48 c7 c6 06 00 00 00 	mov    $0x6,%rsi
  404c4c:	48 c7 c2 06 00 00 00 	mov    $0x6,%rdx
  404c53:	48 89 74 24 68       	mov    %rsi,0x68(%rsp)
  404c58:	48 89 54 24 70       	mov    %rdx,0x70(%rsp)
  404c5d:	48 89 5c 24 60       	mov    %rbx,0x60(%rsp)
  404c62:	48 83 c7 10          	add    $0x10,%rdi
  404c66:	48 89 3c 24          	mov    %rdi,(%rsp)
  404c6a:	48 8d 70 10          	lea    0x10(%rax),%rsi
  404c6e:	48 8d 7c 24 08       	lea    0x8(%rsp),%rdi
  404c73:	48 a5                	movsq  %ds:(%rsi),%es:(%rdi)
  404c75:	48 a5                	movsq  %ds:(%rsi),%es:(%rdi)
  404c77:	e8 04 30 00 00       	callq  407c80 <runtime.writebarrierstring>
  404c7c:	48 8b 5c 24 60       	mov    0x60(%rsp),%rbx
  404c81:	48 83 c3 30          	add    $0x30,%rbx
  404c85:	48 89 1c 24          	mov    %rbx,(%rsp)
  404c89:	48 8b bc 24 e0 00 00 	mov    0xe0(%rsp),%rdi
  404c90:	00 
  404c91:	48 83 ff 00          	cmp    $0x0,%rdi
  404c95:	0f 84 8d 00 00 00    	je     404d28 <runtime.(*TypeAssertionError).Error+0x318>
  404c9b:	48 8d 6f 20          	lea    0x20(%rdi),%rbp
  404c9f:	48 8d 7c 24 08       	lea    0x8(%rsp),%rdi
  404ca4:	48 89 ee             	mov    %rbp,%rsi
  404ca7:	48 a5                	movsq  %ds:(%rsi),%es:(%rdi)
  404ca9:	48 a5                	movsq  %ds:(%rsi),%es:(%rdi)
  404cab:	e8 d0 2f 00 00       	callq  407c80 <runtime.writebarrierstring>
  404cb0:	48 8b 5c 24 60       	mov    0x60(%rsp),%rbx
  404cb5:	48 83 c3 50          	add    $0x50,%rbx
  404cb9:	48 89 1c 24          	mov    %rbx,(%rsp)
  404cbd:	48 8b bc 24 e0 00 00 	mov    0xe0(%rsp),%rdi
  404cc4:	00 
  404cc5:	48 83 ff 00          	cmp    $0x0,%rdi
  404cc9:	74 59                	je     404d24 <runtime.(*TypeAssertionError).Error+0x314>
  404ccb:	48 8d 6f 30          	lea    0x30(%rdi),%rbp
  404ccf:	48 8d 7c 24 08       	lea    0x8(%rsp),%rdi
  404cd4:	48 89 ee             	mov    %rbp,%rsi
  404cd7:	48 a5                	movsq  %ds:(%rsi),%es:(%rdi)
  404cd9:	48 a5                	movsq  %ds:(%rsi),%es:(%rdi)
  404cdb:	e8 a0 2f 00 00       	callq  407c80 <runtime.writebarrierstring>
  404ce0:	48 8b 5c 24 60       	mov    0x60(%rsp),%rbx
  404ce5:	48 89 1c 24          	mov    %rbx,(%rsp)
  404ce9:	48 8b 5c 24 68       	mov    0x68(%rsp),%rbx
  404cee:	48 89 5c 24 08       	mov    %rbx,0x8(%rsp)
  404cf3:	48 8b 5c 24 70       	mov    0x70(%rsp),%rbx
  404cf8:	48 89 5c 24 10       	mov    %rbx,0x10(%rsp)
  404cfd:	e8 fe 8c 00 00       	callq  40da00 <runtime.concatstrings>
  404d02:	48 8b 5c 24 18       	mov    0x18(%rsp),%rbx
  404d07:	48 89 9c 24 e8 00 00 	mov    %rbx,0xe8(%rsp)
  404d0e:	00 
  404d0f:	48 8b 5c 24 20       	mov    0x20(%rsp),%rbx
  404d14:	48 89 9c 24 f0 00 00 	mov    %rbx,0xf0(%rsp)
  404d1b:	00 
  404d1c:	48 81 c4 d8 00 00 00 	add    $0xd8,%rsp
  404d23:	c3                   	retq   
  404d24:	89 07                	mov    %eax,(%rdi)
  404d26:	eb a3                	jmp    404ccb <runtime.(*TypeAssertionError).Error+0x2bb>
  404d28:	89 07                	mov    %eax,(%rdi)
  404d2a:	e9 6c ff ff ff       	jmpq   404c9b <runtime.(*TypeAssertionError).Error+0x28b>
  404d2f:	89 03                	mov    %eax,(%rbx)
  404d31:	e9 fa fe ff ff       	jmpq   404c30 <runtime.(*TypeAssertionError).Error+0x220>
  404d36:	89 00                	mov    %eax,(%rax)
  404d38:	e9 1f fd ff ff       	jmpq   404a5c <runtime.(*TypeAssertionError).Error+0x4c>
  404d3d:	00 00                	add    %al,(%rax)
	...

0000000000404d40 <runtime.errorString.RuntimeError>:
  404d40:	c3                   	retq   
	...

0000000000404d50 <runtime.errorString.Error>:
  404d50:	64 48 8b 0c 25 f0 ff 	mov    %fs:0xfffffffffffffff0,%rcx
  404d57:	ff ff 
  404d59:	48 3b 61 10          	cmp    0x10(%rcx),%rsp
  404d5d:	77 07                	ja     404d66 <runtime.errorString.Error+0x16>
  404d5f:	e8 ec 7d 02 00       	callq  42cb50 <runtime.morestack_noctxt>
  404d64:	eb ea                	jmp    404d50 <runtime.errorString.Error>
  404d66:	48 83 ec 30          	sub    $0x30,%rsp
  404d6a:	48 c7 44 24 48 00 00 	movq   $0x0,0x48(%rsp)
  404d71:	00 00 
  404d73:	48 c7 44 24 50 00 00 	movq   $0x0,0x50(%rsp)
  404d7a:	00 00 
  404d7c:	48 8d 1d 7d 03 04 00 	lea    0x4037d(%rip),%rbx        # 445100 <go.string.*+0x5018>
  404d83:	48 8d 2c 24          	lea    (%rsp),%rbp
  404d87:	48 89 ef             	mov    %rbp,%rdi
  404d8a:	48 89 de             	mov    %rbx,%rsi
  404d8d:	48 a5                	movsq  %ds:(%rsi),%es:(%rdi)
  404d8f:	48 a5                	movsq  %ds:(%rsi),%es:(%rdi)
  404d91:	48 8b 5c 24 38       	mov    0x38(%rsp),%rbx
  404d96:	48 89 5c 24 10       	mov    %rbx,0x10(%rsp)
  404d9b:	48 8b 5c 24 40       	mov    0x40(%rsp),%rbx
  404da0:	48 89 5c 24 18       	mov    %rbx,0x18(%rsp)
  404da5:	e8 c6 8f 00 00       	callq  40dd70 <runtime.concatstring2>
  404daa:	48 8b 5c 24 20       	mov    0x20(%rsp),%rbx
  404daf:	48 89 5c 24 48       	mov    %rbx,0x48(%rsp)
  404db4:	48 8b 5c 24 28       	mov    0x28(%rsp),%rbx
  404db9:	48 89 5c 24 50       	mov    %rbx,0x50(%rsp)
  404dbe:	48 83 c4 30          	add    $0x30,%rsp
  404dc2:	c3                   	retq   
	...

0000000000404dd0 <runtime.printany>:
  404dd0:	64 48 8b 0c 25 f0 ff 	mov    %fs:0xfffffffffffffff0,%rcx
  404dd7:	ff ff 
  404dd9:	48 8d 44 24 b8       	lea    -0x48(%rsp),%rax
  404dde:	48 3b 41 10          	cmp    0x10(%rcx),%rax
  404de2:	77 07                	ja     404deb <runtime.printany+0x1b>
  404de4:	e8 67 7d 02 00       	callq  42cb50 <runtime.morestack_noctxt>
  404de9:	eb e5                	jmp    404dd0 <runtime.printany>
  404deb:	48 81 ec c8 00 00 00 	sub    $0xc8,%rsp
  404df2:	48 8b 8c 24 d0 00 00 	mov    0xd0(%rsp),%rcx
  404df9:	00 
  404dfa:	48 8b 84 24 d8 00 00 	mov    0xd8(%rsp),%rax
  404e01:	00 
  404e02:	48 89 8c 24 a8 00 00 	mov    %rcx,0xa8(%rsp)
  404e09:	00 
  404e0a:	48 89 0c 24          	mov    %rcx,(%rsp)
  404e0e:	48 89 84 24 b0 00 00 	mov    %rax,0xb0(%rsp)
  404e15:	00 
  404e16:	48 89 44 24 08       	mov    %rax,0x8(%rsp)
  404e1b:	e8 f0 10 00 00       	callq  405f10 <runtime.efacethash>
  404e20:	48 8b 8c 24 b0 00 00 	mov    0xb0(%rsp),%rcx
  404e27:	00 
  404e28:	48 8b 84 24 a8 00 00 	mov    0xa8(%rsp),%rax
  404e2f:	00 
  404e30:	8b 5c 24 10          	mov    0x10(%rsp),%ebx
  404e34:	89 5c 24 34          	mov    %ebx,0x34(%rsp)
  404e38:	48 83 f8 00          	cmp    $0x0,%rax
  404e3c:	75 2c                	jne    404e6a <runtime.printany+0x9a>
  404e3e:	48 89 44 24 68       	mov    %rax,0x68(%rsp)
  404e43:	48 89 4c 24 70       	mov    %rcx,0x70(%rsp)
  404e48:	48 8d 1d e1 d1 03 00 	lea    0x3d1e1(%rip),%rbx        # 442030 <go.string.*+0x1f48>
  404e4f:	48 8d 2c 24          	lea    (%rsp),%rbp
  404e53:	48 89 ef             	mov    %rbp,%rdi
  404e56:	48 89 de             	mov    %rbx,%rsi
  404e59:	48 a5                	movsq  %ds:(%rsi),%es:(%rdi)
  404e5b:	48 a5                	movsq  %ds:(%rsi),%es:(%rdi)
  404e5d:	e8 ae 6b 00 00       	callq  40ba10 <runtime.printstring>
  404e62:	48 81 c4 c8 00 00 00 	add    $0xc8,%rsp
  404e69:	c3                   	retq   
  404e6a:	48 8d 1d af 28 03 00 	lea    0x328af(%rip),%rbx        # 437720 <runtime.rodata+0x7720>
  404e71:	48 89 1c 24          	mov    %rbx,(%rsp)
  404e75:	48 89 44 24 08       	mov    %rax,0x8(%rsp)
  404e7a:	48 89 4c 24 10       	mov    %rcx,0x10(%rsp)
  404e7f:	e8 9c 0f 00 00       	callq  405e20 <runtime.assertE2I2>
  404e84:	48 8b 54 24 18       	mov    0x18(%rsp),%rdx
  404e89:	48 89 54 24 58       	mov    %rdx,0x58(%rsp)
  404e8e:	48 8b 4c 24 20       	mov    0x20(%rsp),%rcx
  404e93:	48 89 4c 24 60       	mov    %rcx,0x60(%rsp)
  404e98:	0f b6 5c 24 28       	movzbl 0x28(%rsp),%ebx
  404e9d:	80 fb 00             	cmp    $0x0,%bl
  404ea0:	74 34                	je     404ed6 <runtime.printany+0x106>
  404ea2:	48 89 0c 24          	mov    %rcx,(%rsp)
  404ea6:	48 8b 5a 20          	mov    0x20(%rdx),%rbx
  404eaa:	ff d3                	callq  *%rbx
  404eac:	48 8b 4c 24 08       	mov    0x8(%rsp),%rcx
  404eb1:	48 8b 44 24 10       	mov    0x10(%rsp),%rax
  404eb6:	48 89 8c 24 b8 00 00 	mov    %rcx,0xb8(%rsp)
  404ebd:	00 
  404ebe:	48 89 0c 24          	mov    %rcx,(%rsp)
  404ec2:	48 89 84 24 c0 00 00 	mov    %rax,0xc0(%rsp)
  404ec9:	00 
  404eca:	48 89 44 24 08       	mov    %rax,0x8(%rsp)
  404ecf:	e8 3c 6b 00 00       	callq  40ba10 <runtime.printstring>
  404ed4:	eb 8c                	jmp    404e62 <runtime.printany+0x92>
  404ed6:	48 8d 1d c3 25 03 00 	lea    0x325c3(%rip),%rbx        # 4374a0 <runtime.rodata+0x74a0>
  404edd:	48 89 1c 24          	mov    %rbx,(%rsp)
  404ee1:	48 8b 9c 24 a8 00 00 	mov    0xa8(%rsp),%rbx
  404ee8:	00 
  404ee9:	48 89 5c 24 08       	mov    %rbx,0x8(%rsp)
  404eee:	48 8b 9c 24 b0 00 00 	mov    0xb0(%rsp),%rbx
  404ef5:	00 
  404ef6:	48 89 5c 24 10       	mov    %rbx,0x10(%rsp)
  404efb:	e8 20 0f 00 00       	callq  405e20 <runtime.assertE2I2>
  404f00:	48 8b 54 24 18       	mov    0x18(%rsp),%rdx
  404f05:	48 89 94 24 88 00 00 	mov    %rdx,0x88(%rsp)
  404f0c:	00 
  404f0d:	48 8b 4c 24 20       	mov    0x20(%rsp),%rcx
  404f12:	48 89 8c 24 90 00 00 	mov    %rcx,0x90(%rsp)
  404f19:	00 
  404f1a:	0f b6 5c 24 28       	movzbl 0x28(%rsp),%ebx
  404f1f:	80 fb 00             	cmp    $0x0,%bl
  404f22:	74 37                	je     404f5b <runtime.printany+0x18b>
  404f24:	48 89 0c 24          	mov    %rcx,(%rsp)
  404f28:	48 8b 5a 20          	mov    0x20(%rdx),%rbx
  404f2c:	ff d3                	callq  *%rbx
  404f2e:	48 8b 4c 24 08       	mov    0x8(%rsp),%rcx
  404f33:	48 8b 44 24 10       	mov    0x10(%rsp),%rax
  404f38:	48 89 8c 24 b8 00 00 	mov    %rcx,0xb8(%rsp)
  404f3f:	00 
  404f40:	48 89 0c 24          	mov    %rcx,(%rsp)
  404f44:	48 89 84 24 c0 00 00 	mov    %rax,0xc0(%rsp)
  404f4b:	00 
  404f4c:	48 89 44 24 08       	mov    %rax,0x8(%rsp)
  404f51:	e8 ba 6a 00 00       	callq  40ba10 <runtime.printstring>
  404f56:	e9 07 ff ff ff       	jmpq   404e62 <runtime.printany+0x92>
  404f5b:	8b 5c 24 34          	mov    0x34(%rsp),%ebx
  404f5f:	81 fb b4 5c ff e0    	cmp    $0xe0ff5cb4,%ebx
  404f65:	75 5e                	jne    404fc5 <runtime.printany+0x1f5>
  404f67:	48 8d 1d 72 08 03 00 	lea    0x30872(%rip),%rbx        # 4357e0 <runtime.rodata+0x57e0>
  404f6e:	48 89 1c 24          	mov    %rbx,(%rsp)
  404f72:	48 8b 9c 24 a8 00 00 	mov    0xa8(%rsp),%rbx
  404f79:	00 
  404f7a:	48 89 5c 24 08       	mov    %rbx,0x8(%rsp)
  404f7f:	48 8b 9c 24 b0 00 00 	mov    0xb0(%rsp),%rbx
  404f86:	00 
  404f87:	48 89 5c 24 10       	mov    %rbx,0x10(%rsp)
  404f8c:	e8 0f 0d 00 00       	callq  405ca0 <runtime.assertE2T2>
  404f91:	48 8b 54 24 18       	mov    0x18(%rsp),%rdx
  404f96:	48 89 54 24 78       	mov    %rdx,0x78(%rsp)
  404f9b:	48 8b 4c 24 20       	mov    0x20(%rsp),%rcx
  404fa0:	48 89 8c 24 80 00 00 	mov    %rcx,0x80(%rsp)
  404fa7:	00 
  404fa8:	0f b6 5c 24 28       	movzbl 0x28(%rsp),%ebx
  404fad:	80 fb 00             	cmp    $0x0,%bl
  404fb0:	74 13                	je     404fc5 <runtime.printany+0x1f5>
  404fb2:	48 89 14 24          	mov    %rdx,(%rsp)
  404fb6:	48 89 4c 24 08       	mov    %rcx,0x8(%rsp)
  404fbb:	e8 50 6a 00 00       	callq  40ba10 <runtime.printstring>
  404fc0:	e9 9d fe ff ff       	jmpq   404e62 <runtime.printany+0x92>
  404fc5:	8b 5c 24 34          	mov    0x34(%rsp),%ebx
  404fc9:	81 fb fa 71 53 f7    	cmp    $0xf75371fa,%ebx
  404fcf:	75 47                	jne    405018 <runtime.printany+0x248>
  404fd1:	48 8d 1d 08 04 03 00 	lea    0x30408(%rip),%rbx        # 4353e0 <runtime.rodata+0x53e0>
  404fd8:	48 89 1c 24          	mov    %rbx,(%rsp)
  404fdc:	48 8b 9c 24 a8 00 00 	mov    0xa8(%rsp),%rbx
  404fe3:	00 
  404fe4:	48 89 5c 24 08       	mov    %rbx,0x8(%rsp)
  404fe9:	48 8b 9c 24 b0 00 00 	mov    0xb0(%rsp),%rbx
  404ff0:	00 
  404ff1:	48 89 5c 24 10       	mov    %rbx,0x10(%rsp)
  404ff6:	e8 a5 0c 00 00       	callq  405ca0 <runtime.assertE2T2>
  404ffb:	48 8b 44 24 18       	mov    0x18(%rsp),%rax
  405000:	0f b6 5c 24 20       	movzbl 0x20(%rsp),%ebx
  405005:	80 fb 00             	cmp    $0x0,%bl
  405008:	74 0e                	je     405018 <runtime.printany+0x248>
  40500a:	48 89 04 24          	mov    %rax,(%rsp)
  40500e:	e8 1d 68 00 00       	callq  40b830 <runtime.printint>
  405013:	e9 4a fe ff ff       	jmpq   404e62 <runtime.printany+0x92>
  405018:	48 8b 9c 24 a8 00 00 	mov    0xa8(%rsp),%rbx
  40501f:	00 
  405020:	48 89 9c 24 98 00 00 	mov    %rbx,0x98(%rsp)
  405027:	00 
  405028:	48 8b 9c 24 b0 00 00 	mov    0xb0(%rsp),%rbx
  40502f:	00 
  405030:	48 89 9c 24 a0 00 00 	mov    %rbx,0xa0(%rsp)
  405037:	00 
  405038:	48 8b 9c 24 d0 00 00 	mov    0xd0(%rsp),%rbx
  40503f:	00 
  405040:	48 89 5c 24 48       	mov    %rbx,0x48(%rsp)
  405045:	48 8b 9c 24 d8 00 00 	mov    0xd8(%rsp),%rbx
  40504c:	00 
  40504d:	48 89 5c 24 50       	mov    %rbx,0x50(%rsp)
  405052:	48 8d 5c 24 48       	lea    0x48(%rsp),%rbx
  405057:	48 8b 2b             	mov    (%rbx),%rbp
  40505a:	48 8b 75 28          	mov    0x28(%rbp),%rsi
  40505e:	48 83 fe 00          	cmp    $0x0,%rsi
  405062:	74 7a                	je     4050de <runtime.printany+0x30e>
  405064:	48 8b 2e             	mov    (%rsi),%rbp
  405067:	48 89 6c 24 38       	mov    %rbp,0x38(%rsp)
  40506c:	48 8b 7e 08          	mov    0x8(%rsi),%rdi
  405070:	48 89 7c 24 40       	mov    %rdi,0x40(%rsp)
  405075:	48 8d 35 b4 b1 03 00 	lea    0x3b1b4(%rip),%rsi        # 440230 <go.string.*+0x148>
  40507c:	48 8d 3c 24          	lea    (%rsp),%rdi
  405080:	48 a5                	movsq  %ds:(%rsi),%es:(%rdi)
  405082:	48 a5                	movsq  %ds:(%rsi),%es:(%rdi)
  405084:	e8 87 69 00 00       	callq  40ba10 <runtime.printstring>
  405089:	48 8b 5c 24 38       	mov    0x38(%rsp),%rbx
  40508e:	48 89 1c 24          	mov    %rbx,(%rsp)
  405092:	48 8b 5c 24 40       	mov    0x40(%rsp),%rbx
  405097:	48 89 5c 24 08       	mov    %rbx,0x8(%rsp)
  40509c:	e8 6f 69 00 00       	callq  40ba10 <runtime.printstring>
  4050a1:	48 8d 1d a8 b1 03 00 	lea    0x3b1a8(%rip),%rbx        # 440250 <go.string.*+0x168>
  4050a8:	48 8d 2c 24          	lea    (%rsp),%rbp
  4050ac:	48 89 ef             	mov    %rbp,%rdi
  4050af:	48 89 de             	mov    %rbx,%rsi
  4050b2:	48 a5                	movsq  %ds:(%rsi),%es:(%rdi)
  4050b4:	48 a5                	movsq  %ds:(%rsi),%es:(%rdi)
  4050b6:	e8 55 69 00 00       	callq  40ba10 <runtime.printstring>
  4050bb:	48 8b 9c 24 d0 00 00 	mov    0xd0(%rsp),%rbx
  4050c2:	00 
  4050c3:	48 89 1c 24          	mov    %rbx,(%rsp)
  4050c7:	48 8b 9c 24 d8 00 00 	mov    0xd8(%rsp),%rbx
  4050ce:	00 
  4050cf:	48 89 5c 24 08       	mov    %rbx,0x8(%rsp)
  4050d4:	e8 c7 6a 00 00       	callq  40bba0 <runtime.printeface>
  4050d9:	e9 84 fd ff ff       	jmpq   404e62 <runtime.printany+0x92>
  4050de:	89 06                	mov    %eax,(%rsi)
  4050e0:	eb 82                	jmp    405064 <runtime.printany+0x294>
	...

00000000004050f0 <runtime.panicwrap>:
  4050f0:	64 48 8b 0c 25 f0 ff 	mov    %fs:0xfffffffffffffff0,%rcx
  4050f7:	ff ff 
  4050f9:	48 8d 44 24 a0       	lea    -0x60(%rsp),%rax
  4050fe:	48 3b 41 10          	cmp    0x10(%rcx),%rax
  405102:	77 07                	ja     40510b <runtime.panicwrap+0x1b>
  405104:	e8 47 7a 02 00       	callq  42cb50 <runtime.morestack_noctxt>
  405109:	eb e5                	jmp    4050f0 <runtime.panicwrap>
  40510b:	48 81 ec e0 00 00 00 	sub    $0xe0,%rsp
  405112:	48 8d 5c 24 50       	lea    0x50(%rsp),%rbx
  405117:	48 83 fb 00          	cmp    $0x0,%rbx
  40511b:	0f 84 44 01 00 00    	je     405265 <runtime.panicwrap+0x175>
  405121:	48 8d 2d d8 6d 04 00 	lea    0x46dd8(%rip),%rbp        # 44bf00 <runtime.statictmp_0381>
  405128:	48 89 df             	mov    %rbx,%rdi
  40512b:	48 89 ee             	mov    %rbp,%rsi
  40512e:	e8 91 99 02 00       	callq  42eac4 <runtime.duffcopy+0x604>
  405133:	48 c7 c2 09 00 00 00 	mov    $0x9,%rdx
  40513a:	48 c7 c1 09 00 00 00 	mov    $0x9,%rcx
  405141:	48 89 54 24 40       	mov    %rdx,0x40(%rsp)
  405146:	48 89 4c 24 48       	mov    %rcx,0x48(%rsp)
  40514b:	48 89 5c 24 38       	mov    %rbx,0x38(%rsp)
  405150:	48 83 c3 10          	add    $0x10,%rbx
  405154:	48 89 1c 24          	mov    %rbx,(%rsp)
  405158:	48 8b 9c 24 e8 00 00 	mov    0xe8(%rsp),%rbx
  40515f:	00 
  405160:	48 89 5c 24 08       	mov    %rbx,0x8(%rsp)
  405165:	48 8b 9c 24 f0 00 00 	mov    0xf0(%rsp),%rbx
  40516c:	00 
  40516d:	48 89 5c 24 10       	mov    %rbx,0x10(%rsp)
  405172:	e8 09 2b 00 00       	callq  407c80 <runtime.writebarrierstring>
  405177:	48 8b 5c 24 38       	mov    0x38(%rsp),%rbx
  40517c:	48 83 c3 30          	add    $0x30,%rbx
  405180:	48 89 1c 24          	mov    %rbx,(%rsp)
  405184:	48 8b 9c 24 f8 00 00 	mov    0xf8(%rsp),%rbx
  40518b:	00 
  40518c:	48 89 5c 24 08       	mov    %rbx,0x8(%rsp)
  405191:	48 8b 9c 24 00 01 00 	mov    0x100(%rsp),%rbx
  405198:	00 
  405199:	48 89 5c 24 10       	mov    %rbx,0x10(%rsp)
  40519e:	e8 dd 2a 00 00       	callq  407c80 <runtime.writebarrierstring>
  4051a3:	48 8b 5c 24 38       	mov    0x38(%rsp),%rbx
  4051a8:	48 83 c3 50          	add    $0x50,%rbx
  4051ac:	48 89 1c 24          	mov    %rbx,(%rsp)
  4051b0:	48 8b 9c 24 08 01 00 	mov    0x108(%rsp),%rbx
  4051b7:	00 
  4051b8:	48 89 5c 24 08       	mov    %rbx,0x8(%rsp)
  4051bd:	48 8b 9c 24 10 01 00 	mov    0x110(%rsp),%rbx
  4051c4:	00 
  4051c5:	48 89 5c 24 10       	mov    %rbx,0x10(%rsp)
  4051ca:	e8 b1 2a 00 00       	callq  407c80 <runtime.writebarrierstring>
  4051cf:	48 8b 5c 24 38       	mov    0x38(%rsp),%rbx
  4051d4:	48 83 c3 70          	add    $0x70,%rbx
  4051d8:	48 89 1c 24          	mov    %rbx,(%rsp)
  4051dc:	48 8b 9c 24 f8 00 00 	mov    0xf8(%rsp),%rbx
  4051e3:	00 
  4051e4:	48 89 5c 24 08       	mov    %rbx,0x8(%rsp)
  4051e9:	48 8b 9c 24 00 01 00 	mov    0x100(%rsp),%rbx
  4051f0:	00 
  4051f1:	48 89 5c 24 10       	mov    %rbx,0x10(%rsp)
  4051f6:	e8 85 2a 00 00       	callq  407c80 <runtime.writebarrierstring>
  4051fb:	48 8b 5c 24 38       	mov    0x38(%rsp),%rbx
  405200:	48 89 1c 24          	mov    %rbx,(%rsp)
  405204:	48 8b 5c 24 40       	mov    0x40(%rsp),%rbx
  405209:	48 89 5c 24 08       	mov    %rbx,0x8(%rsp)
  40520e:	48 8b 5c 24 48       	mov    0x48(%rsp),%rbx
  405213:	48 89 5c 24 10       	mov    %rbx,0x10(%rsp)
  405218:	e8 e3 87 00 00       	callq  40da00 <runtime.concatstrings>
  40521d:	48 8b 5c 24 18       	mov    0x18(%rsp),%rbx
  405222:	48 89 5c 24 28       	mov    %rbx,0x28(%rsp)
  405227:	48 8b 5c 24 20       	mov    0x20(%rsp),%rbx
  40522c:	48 89 5c 24 30       	mov    %rbx,0x30(%rsp)
  405231:	48 8d 1d a8 05 03 00 	lea    0x305a8(%rip),%rbx        # 4357e0 <runtime.rodata+0x57e0>
  405238:	48 89 1c 24          	mov    %rbx,(%rsp)
  40523c:	48 8d 5c 24 28       	lea    0x28(%rsp),%rbx
  405241:	48 89 5c 24 08       	mov    %rbx,0x8(%rsp)
  405246:	e8 35 07 00 00       	callq  405980 <runtime.convT2E>
  40524b:	48 8d 5c 24 10       	lea    0x10(%rsp),%rbx
  405250:	48 8d 2c 24          	lea    (%rsp),%rbp
  405254:	48 89 ef             	mov    %rbp,%rdi
  405257:	48 89 de             	mov    %rbx,%rsi
  40525a:	48 a5                	movsq  %ds:(%rsi),%es:(%rdi)
  40525c:	48 a5                	movsq  %ds:(%rsi),%es:(%rdi)
  40525e:	e8 5d 4c 00 00       	callq  409ec0 <runtime.gopanic>
  405263:	0f 0b                	ud2    
  405265:	89 03                	mov    %eax,(%rbx)
  405267:	e9 b5 fe ff ff       	jmpq   405121 <runtime.panicwrap+0x31>
  40526c:	00 00                	add    %al,(%rax)
	...

0000000000405270 <runtime.getitab>:
  405270:	64 48 8b 0c 25 f0 ff 	mov    %fs:0xfffffffffffffff0,%rcx
  405277:	ff ff 
  405279:	48 3b 61 10          	cmp    0x10(%rcx),%rsp
  40527d:	77 07                	ja     405286 <runtime.getitab+0x16>
  40527f:	e8 cc 78 02 00       	callq  42cb50 <runtime.morestack_noctxt>
  405284:	eb ea                	jmp    405270 <runtime.getitab>
  405286:	48 83 ec 78          	sub    $0x78,%rsp
  40528a:	4c 8b 94 24 80 00 00 	mov    0x80(%rsp),%r10
  405291:	00 
  405292:	49 8b 6a 50          	mov    0x50(%r10),%rbp
  405296:	48 83 fd 00          	cmp    $0x0,%rbp
  40529a:	0f 85 d5 06 00 00    	jne    405975 <runtime.getitab+0x705>
  4052a0:	48 8d 1d 99 3d 04 00 	lea    0x43d99(%rip),%rbx        # 449040 <go.string.*+0x8f58>
  4052a7:	48 8d 2c 24          	lea    (%rsp),%rbp
  4052ab:	48 89 ef             	mov    %rbp,%rdi
  4052ae:	48 89 de             	mov    %rbx,%rsi
  4052b1:	48 a5                	movsq  %ds:(%rsi),%es:(%rdi)
  4052b3:	48 a5                	movsq  %ds:(%rsi),%es:(%rdi)
  4052b5:	e8 36 53 00 00       	callq  40a5f0 <runtime.gothrow>
  4052ba:	4c 8b 94 24 80 00 00 	mov    0x80(%rsp),%r10
  4052c1:	00 
  4052c2:	48 8b 9c 24 88 00 00 	mov    0x88(%rsp),%rbx
  4052c9:	00 
  4052ca:	48 8b 5b 30          	mov    0x30(%rbx),%rbx
  4052ce:	48 89 5c 24 50       	mov    %rbx,0x50(%rsp)
  4052d3:	31 ed                	xor    %ebp,%ebp
  4052d5:	48 39 eb             	cmp    %rbp,%rbx
  4052d8:	0f 85 59 01 00 00    	jne    405437 <runtime.getitab+0x1c7>
  4052de:	80 bc 24 90 00 00 00 	cmpb   $0x0,0x90(%rsp)
  4052e5:	00 
  4052e6:	74 11                	je     4052f9 <runtime.getitab+0x89>
  4052e8:	48 c7 84 24 98 00 00 	movq   $0x0,0x98(%rsp)
  4052ef:	00 00 00 00 00 
  4052f4:	48 83 c4 78          	add    $0x78,%rsp
  4052f8:	c3                   	retq   
  4052f9:	48 c7 c0 60 00 00 00 	mov    $0x60,%rax
  405300:	4c 89 d3             	mov    %r10,%rbx
  405303:	48 01 c3             	add    %rax,%rbx
  405306:	48 89 5c 24 68       	mov    %rbx,0x68(%rsp)
  40530b:	48 8d 1d ee 4b 03 00 	lea    0x34bee(%rip),%rbx        # 439f00 <runtime.rodata+0x9f00>
  405312:	48 89 1c 24          	mov    %rbx,(%rsp)
  405316:	e8 45 1e 00 00       	callq  407160 <runtime.newobject>
  40531b:	48 8b 44 24 08       	mov    0x8(%rsp),%rax
  405320:	48 83 f8 00          	cmp    $0x0,%rax
  405324:	0f 84 06 01 00 00    	je     405430 <runtime.getitab+0x1c0>
  40532a:	48 8d 28             	lea    (%rax),%rbp
  40532d:	48 c7 45 00 00 00 00 	movq   $0x0,0x0(%rbp)
  405334:	00 
  405335:	48 c7 45 08 00 00 00 	movq   $0x0,0x8(%rbp)
  40533c:	00 
  40533d:	48 89 44 24 70       	mov    %rax,0x70(%rsp)
  405342:	48 89 04 24          	mov    %rax,(%rsp)
  405346:	48 83 3c 24 00       	cmpq   $0x0,(%rsp)
  40534b:	0f 84 d3 00 00 00    	je     405424 <runtime.getitab+0x1b4>
  405351:	48 83 04 24 10       	addq   $0x10,(%rsp)
  405356:	48 8b bc 24 88 00 00 	mov    0x88(%rsp),%rdi
  40535d:	00 
  40535e:	48 8b 77 28          	mov    0x28(%rdi),%rsi
  405362:	48 83 fe 00          	cmp    $0x0,%rsi
  405366:	0f 84 b1 00 00 00    	je     40541d <runtime.getitab+0x1ad>
  40536c:	48 8d 7c 24 08       	lea    0x8(%rsp),%rdi
  405371:	48 a5                	movsq  %ds:(%rsi),%es:(%rdi)
  405373:	48 a5                	movsq  %ds:(%rsi),%es:(%rdi)
  405375:	e8 06 29 00 00       	callq  407c80 <runtime.writebarrierstring>
  40537a:	48 8b 5c 24 70       	mov    0x70(%rsp),%rbx
  40537f:	48 89 1c 24          	mov    %rbx,(%rsp)
  405383:	48 83 3c 24 00       	cmpq   $0x0,(%rsp)
  405388:	0f 84 83 00 00 00    	je     405411 <runtime.getitab+0x1a1>
  40538e:	48 83 04 24 20       	addq   $0x20,(%rsp)
  405393:	48 8b bc 24 80 00 00 	mov    0x80(%rsp),%rdi
  40539a:	00 
  40539b:	48 8b 77 28          	mov    0x28(%rdi),%rsi
  40539f:	48 83 fe 00          	cmp    $0x0,%rsi
  4053a3:	74 68                	je     40540d <runtime.getitab+0x19d>
  4053a5:	48 8d 7c 24 08       	lea    0x8(%rsp),%rdi
  4053aa:	48 a5                	movsq  %ds:(%rsi),%es:(%rdi)
  4053ac:	48 a5                	movsq  %ds:(%rsi),%es:(%rdi)
  4053ae:	e8 cd 28 00 00       	callq  407c80 <runtime.writebarrierstring>
  4053b3:	48 8b 5c 24 70       	mov    0x70(%rsp),%rbx
  4053b8:	48 89 1c 24          	mov    %rbx,(%rsp)
  4053bc:	48 83 3c 24 00       	cmpq   $0x0,(%rsp)
  4053c1:	74 41                	je     405404 <runtime.getitab+0x194>
  4053c3:	48 83 04 24 30       	addq   $0x30,(%rsp)
  4053c8:	48 8b 7c 24 68       	mov    0x68(%rsp),%rdi
  4053cd:	48 8b 37             	mov    (%rdi),%rsi
  4053d0:	48 83 fe 00          	cmp    $0x0,%rsi
  4053d4:	74 2a                	je     405400 <runtime.getitab+0x190>
  4053d6:	48 8d 7c 24 08       	lea    0x8(%rsp),%rdi
  4053db:	48 a5                	movsq  %ds:(%rsi),%es:(%rdi)
  4053dd:	48 a5                	movsq  %ds:(%rsi),%es:(%rdi)
  4053df:	e8 9c 28 00 00       	callq  407c80 <runtime.writebarrierstring>
  4053e4:	48 8b 4c 24 70       	mov    0x70(%rsp),%rcx
  4053e9:	48 8d 1d 70 2b 03 00 	lea    0x32b70(%rip),%rbx        # 437f60 <runtime.rodata+0x7f60>
  4053f0:	48 89 1c 24          	mov    %rbx,(%rsp)
  4053f4:	48 89 4c 24 08       	mov    %rcx,0x8(%rsp)
  4053f9:	e8 c2 4a 00 00       	callq  409ec0 <runtime.gopanic>
  4053fe:	0f 0b                	ud2    
  405400:	89 06                	mov    %eax,(%rsi)
  405402:	eb d2                	jmp    4053d6 <runtime.getitab+0x166>
  405404:	89 04 25 00 00 00 00 	mov    %eax,0x0
  40540b:	eb b6                	jmp    4053c3 <runtime.getitab+0x153>
  40540d:	89 06                	mov    %eax,(%rsi)
  40540f:	eb 94                	jmp    4053a5 <runtime.getitab+0x135>
  405411:	89 04 25 00 00 00 00 	mov    %eax,0x0
  405418:	e9 71 ff ff ff       	jmpq   40538e <runtime.getitab+0x11e>
  40541d:	89 06                	mov    %eax,(%rsi)
  40541f:	e9 48 ff ff ff       	jmpq   40536c <runtime.getitab+0xfc>
  405424:	89 04 25 00 00 00 00 	mov    %eax,0x0
  40542b:	e9 21 ff ff ff       	jmpq   405351 <runtime.getitab+0xe1>
  405430:	89 00                	mov    %eax,(%rax)
  405432:	e9 f3 fe ff ff       	jmpq   40532a <runtime.getitab+0xba>
  405437:	41 8b 42 08          	mov    0x8(%r10),%eax
  40543b:	48 8b ac 24 88 00 00 	mov    0x88(%rsp),%rbp
  405442:	00 
  405443:	8b 4d 08             	mov    0x8(%rbp),%ecx
  405446:	6b c9 11             	imul   $0x11,%ecx,%ecx
  405449:	01 c1                	add    %eax,%ecx
  40544b:	bd 85 45 ce 03       	mov    $0x3ce4585,%ebp
  405450:	89 c8                	mov    %ecx,%eax
  405452:	f7 e5                	mul    %ebp
  405454:	8b da                	mov    %edx,%ebx
  405456:	8b e9                	mov    %ecx,%ebp
  405458:	48 01 eb             	add    %rbp,%rbx
  40545b:	48 c1 eb 0a          	shr    $0xa,%rbx
  40545f:	89 db                	mov    %ebx,%ebx
  405461:	69 db f1 03 00 00    	imul   $0x3f1,%ebx,%ebx
  405467:	89 cd                	mov    %ecx,%ebp
  405469:	29 dd                	sub    %ebx,%ebp
  40546b:	89 6c 24 24          	mov    %ebp,0x24(%rsp)
  40546f:	31 c0                	xor    %eax,%eax
  405471:	48 89 44 24 38       	mov    %rax,0x38(%rsp)
  405476:	48 83 f8 02          	cmp    $0x2,%rax
  40547a:	0f 8d 49 04 00 00    	jge    4058c9 <runtime.getitab+0x659>
  405480:	48 83 f8 00          	cmp    $0x0,%rax
  405484:	74 10                	je     405496 <runtime.getitab+0x226>
  405486:	48 8d 1d d3 90 06 00 	lea    0x690d3(%rip),%rbx        # 46e560 <runtime.ifaceLock>
  40548d:	48 89 1c 24          	mov    %rbx,(%rsp)
  405491:	e8 9a 0a 00 00       	callq  405f30 <runtime.lock>
  405496:	48 8d 1d 63 31 06 00 	lea    0x63163(%rip),%rbx        # 468600 <runtime.hash>
  40549d:	8b 6c 24 24          	mov    0x24(%rsp),%ebp
  4054a1:	48 81 fd f1 03 00 00 	cmp    $0x3f1,%rbp
  4054a8:	0f 83 c0 04 00 00    	jae    40596e <runtime.getitab+0x6fe>
  4054ae:	48 8d 1c eb          	lea    (%rbx,%rbp,8),%rbx
  4054b2:	48 89 1c 24          	mov    %rbx,(%rsp)
  4054b6:	e8 a5 21 01 00       	callq  417660 <runtime.atomicloadp>
  4054bb:	48 8b 8c 24 88 00 00 	mov    0x88(%rsp),%rcx
  4054c2:	00 
  4054c3:	4c 8b 94 24 80 00 00 	mov    0x80(%rsp),%r10
  4054ca:	00 
  4054cb:	48 8b 44 24 08       	mov    0x8(%rsp),%rax
  4054d0:	31 ed                	xor    %ebp,%ebp
  4054d2:	48 39 e8             	cmp    %rbp,%rax
  4054d5:	0f 84 d7 03 00 00    	je     4058b2 <runtime.getitab+0x642>
  4054db:	48 8b 18             	mov    (%rax),%rbx
  4054de:	4c 39 d3             	cmp    %r10,%rbx
  4054e1:	0f 85 bc 03 00 00    	jne    4058a3 <runtime.getitab+0x633>
  4054e7:	48 8b 58 08          	mov    0x8(%rax),%rbx
  4054eb:	48 39 cb             	cmp    %rcx,%rbx
  4054ee:	0f 85 af 03 00 00    	jne    4058a3 <runtime.getitab+0x633>
  4054f4:	48 89 44 24 58       	mov    %rax,0x58(%rsp)
  4054f9:	8b 58 18             	mov    0x18(%rax),%ebx
  4054fc:	83 fb 00             	cmp    $0x0,%ebx
  4054ff:	0f 84 71 03 00 00    	je     405876 <runtime.getitab+0x606>
  405505:	31 c0                	xor    %eax,%eax
  405507:	48 89 44 24 58       	mov    %rax,0x58(%rsp)
  40550c:	80 bc 24 90 00 00 00 	cmpb   $0x0,0x90(%rsp)
  405513:	00 
  405514:	0f 85 5c 03 00 00    	jne    405876 <runtime.getitab+0x606>
  40551a:	49 8b 6a 50          	mov    0x50(%r10),%rbp
  40551e:	48 89 6c 24 30       	mov    %rbp,0x30(%rsp)
  405523:	48 8b 5c 24 50       	mov    0x50(%rsp),%rbx
  405528:	48 8b 6b 18          	mov    0x18(%rbx),%rbp
  40552c:	48 89 6c 24 28       	mov    %rbp,0x28(%rsp)
  405531:	31 d2                	xor    %edx,%edx
  405533:	31 f6                	xor    %esi,%esi
  405535:	48 8b 6c 24 30       	mov    0x30(%rsp),%rbp
  40553a:	48 39 ee             	cmp    %rbp,%rsi
  40553d:	0f 8d d2 00 00 00    	jge    405615 <runtime.getitab+0x3a5>
  405543:	48 89 f1             	mov    %rsi,%rcx
  405546:	48 6b c9 18          	imul   $0x18,%rcx,%rcx
  40554a:	48 83 c1 60          	add    $0x60,%rcx
  40554e:	4c 89 d3             	mov    %r10,%rbx
  405551:	48 01 cb             	add    %rcx,%rbx
  405554:	4c 8b 0b             	mov    (%rbx),%r9
  405557:	4c 89 4c 24 60       	mov    %r9,0x60(%rsp)
  40555c:	4c 8b 43 08          	mov    0x8(%rbx),%r8
  405560:	48 8b 7b 10          	mov    0x10(%rbx),%rdi
  405564:	48 8b 6c 24 28       	mov    0x28(%rsp),%rbp
  405569:	48 39 ea             	cmp    %rbp,%rdx
  40556c:	0f 8d a3 01 00 00    	jge    405715 <runtime.getitab+0x4a5>
  405572:	48 8b 5c 24 50       	mov    0x50(%rsp),%rbx
  405577:	48 89 d1             	mov    %rdx,%rcx
  40557a:	48 89 54 24 48       	mov    %rdx,0x48(%rsp)
  40557f:	48 6b c9 30          	imul   $0x30,%rcx,%rcx
  405583:	48 83 c1 28          	add    $0x28,%rcx
